(dp1
S'output'
p2
S"<type 'exceptions.NameError'> name 'Profile' is not defined"
p3
sS'layer'
p4
S'/home/alumno/Escritorio/web2py/applications/miFacebook/views/default/wall.html'
p5
sS'code'
p6
S'response.write(\'<!DOCTYPE html>\\n<!-- paulirish.com/2008/conditional-stylesheets-vs-css-hacks-answer-neither/ -->\\n<!--[if lt IE 7]><html class="ie ie6 ie-lte9 ie-lte8 ie-lte7 no-js" lang="\', escape=False)\nresponse.write(T.accepted_language or \'en\')\nresponse.write(\'"> <![endif]-->\\n<!--[if IE 7]><html class="ie ie7 ie-lte9 ie-lte8 ie-lte7 no-js" lang="\', escape=False)\nresponse.write(T.accepted_language or \'en\')\nresponse.write(\'"> <![endif]-->\\n<!--[if IE 8]><html class="ie ie8 ie-lte9 ie-lte8 no-js" lang="\', escape=False)\nresponse.write(T.accepted_language or \'en\')\nresponse.write(\'"> <![endif]-->\\n<!--[if IE 9]><html class="ie9 ie-lte9 no-js" lang="\', escape=False)\nresponse.write(T.accepted_language or \'en\')\nresponse.write(\'"> <![endif]-->\\n<!--[if (gt IE 9)|!(IE)]><!--> <html class="no-js" lang="\', escape=False)\nresponse.write(T.accepted_language or \'en\')\nresponse.write(\'"> <!--<![endif]-->\\n<head>\\n  <meta charset="utf-8" />\\n  <!-- www.phpied.com/conditional-comments-block-downloads/ -->\\n  <!-- Always force latest IE rendering engine\\n       (even in intranet) & Chrome Frame\\n       Remove this if you use the .htaccess -->\\n  <!--[if IE]>\\n      <meta http-equiv="X-UA-Compatible" content="IE=edge\', escape=False)\nresponse.write(not request.is_local and \',chrome=1\' or \'\')\nresponse.write(\'">\\n      <![endif]-->\\n\\n  <title>\', escape=False)\nresponse.write(response.title or request.application)\nresponse.write(\'</title>\\n\\n  <!-- http://dev.w3.org/html5/markup/meta.name.html -->\\n  <meta name="application-name" content="\', escape=False)\nresponse.write(request.application)\nresponse.write(\'" />\\n\\n  <!-- Speaking of Google, don\\\'t forget to set your site up:\\n       http://google.com/webmasters -->\\n  <meta name="google-site-verification" content="" />\\n\\n  <!--  Mobile Viewport Fix\\n        j.mp/mobileviewport & davidbcalhoun.com/2010/viewport-metatag\\n        device-width: Occupy full width of the screen in its current orientation\\n        initial-scale = 1.0 retains dimensions instead of zooming out if page height > device height\\n        user-scalable = yes allows the user to zoom in -->\\n  <meta name="viewport" content="width=device-width, initial-scale=1.0">\\n\\n  <link rel="shortcut icon" href="\', escape=False)\nresponse.write(URL(\'static\',\'images/favicon.ico\'))\nresponse.write(\'" type="image/x-icon">\\n  <link rel="apple-touch-icon" href="\', escape=False)\nresponse.write(URL(\'static\',\'images/favicon.png\'))\nresponse.write(\'">\\n\\n  <!-- All JavaScript at the bottom, except for Modernizr which enables\\n       HTML5 elements & feature detects -->\\n  <script src="\', escape=False)\nresponse.write(URL(\'static\',\'js/modernizr.custom.js\'))\nresponse.write(\'"></script>\\n\\n  <!-- include stylesheets -->\\n  \', escape=False)\nresponse.files.append(URL(\'static\',\'css/bootstrap.min.css\'))\nresponse.files.append(URL(\'static\',\'css/bootstrap-responsive.min.css\'))\nresponse.files.append(URL(\'static\',\'css/web2py.css\'))\nresponse.files.append(URL(\'static\',\'css/web2py_bootstrap.css\'))\nresponse.write(\'\\n\\n  \', escape=False)\nresponse.write(\'<script type="text/javascript"><!--\\n    // These variables are used by the web2py_ajax_init function in web2py_ajax.js (which is loaded below).\\n    var w2p_ajax_confirm_message = "\', escape=False)\nresponse.write(T(\'Are you sure you want to delete this object?\'))\nresponse.write(\'";\\n    var w2p_ajax_date_format = "\', escape=False)\nresponse.write(T(\'%Y-%m-%d\'))\nresponse.write(\'";\\n    var w2p_ajax_datetime_format = "\', escape=False)\nresponse.write(T(\'%Y-%m-%d %H:%M:%S\'))\nresponse.write(\'";\\n    //--></script>\\n\', escape=False)\nresponse.files.insert(0,URL(\'static\',\'js/jquery.js\'))\nresponse.files.insert(1,URL(\'static\',\'css/calendar.css\'))\nresponse.files.insert(2,URL(\'static\',\'js/calendar.js\'))\nresponse.files.insert(3,URL(\'static\',\'js/web2py.js\'))\nresponse.include_meta()\nresponse.include_files()\nresponse.write(\'\\n\', escape=False)\nresponse.write(\'\\n\\n  \', escape=False)\n# using sidebars need to know what sidebar you want to use\nleft_sidebar_enabled = globals().get(\'left_sidebar_enabled\',False)\nright_sidebar_enabled = globals().get(\'right_sidebar_enabled\',False)\nmiddle_columns = {0:\'span12\',1:\'span9\',2:\'span6\'}[\n(left_sidebar_enabled and 1 or 0)+(right_sidebar_enabled and 1 or 0)]\nresponse.write(\'\\n\\n  <!-- uncomment here to load jquery-ui\\n       <link rel="stylesheet" href="http://ajax.googleapis.com/ajax/libs/jqueryui/1.8.16/themes/base/jquery-ui.css" type="text/css" media="all" />\\n       <script src="http://ajax.googleapis.com/ajax/libs/jqueryui/1.8.16/jquery-ui.min.js" type="text/javascript"></script>\\n       uncomment to load jquery-ui //-->\\n  <noscript><link href="\', escape=False)\nresponse.write(URL(\'static\', \'css/web2py_bootstrap_nojs.css\'))\nresponse.write(\'" rel="stylesheet" type="text/css" /></noscript>\\n  \', escape=False)\nresponse.write(\'\\n</head>\\n\\n<body>\\n  <!-- Navbar ================================================== -->\\n  <div class="navbar navbar-fixed-top">\\n    <div class="flash">\', escape=False)\nresponse.write(response.flash or \'\')\nresponse.write(\'</div>\\n    <div class="navbar-inner">\\n      <div class="container">\\n        <!-- the next tag is necessary for bootstrap menus, do not remove -->\\n        <a class="btn btn-navbar" data-toggle="collapse" data-target=".nav-collapse">\\n          <span class="icon-bar"></span>\\n          <span class="icon-bar"></span>\\n          <span class="icon-bar"></span>\\n        </a>\\n        <a class="brand" href="#">web2py&trade;&nbsp;</a>\\n        <ul id="navbar" class="nav pull-right">\', escape=False)\nresponse.write(\'auth\' in globals() and auth.navbar(mode="dropdown") or \'\')\nresponse.write(\'</ul>\\n        <div class="nav-collapse">\\n          \', escape=False)\nis_mobile=request.user_agent().is_mobile\nresponse.write(\'\\n          \', escape=False)\nif response.menu:\n    response.write(\'\\n          \', escape=False)\n    response.write(MENU(response.menu, _class=\'mobile-menu nav\' if is_mobile else \'nav\',mobile=is_mobile,li_class=\'dropdown\',ul_class=\'dropdown-menu\'))\n    response.write(\'\\n          \', escape=False)\n    pass\nresponse.write(\'\\n        </div><!--/.nav-collapse -->\\n      </div>\\n    </div>\\n  </div><!--/top navbar -->\\n\\n  <div class="container">\\n    <!-- Masthead ================================================== -->\\n    <header class="mastheader row" id="header">\\n        <div class="span12">\\n            <div class="page-header">\\n                <h1>\\n                    \', escape=False)\nresponse.write(response.title or request.application)\nresponse.write(\'\\n                    <small>\', escape=False)\nresponse.write(response.subtitle or \'\')\nresponse.write(\'</small>\\n                </h1>\\n            </div>\\n        </div>\\n    </header>\\n\\n    <section id="main" class="main row">\\n        \', escape=False)\nif left_sidebar_enabled:\n    response.write(\'\\n        <div class="span3 left-sidebar">\\n            \', escape=False)\n    response.write(\'\\n            <h3>Left Sidebar</h3>\\n            <p></p>\\n            \', escape=False)\n    response.write(\'\\n        </div>\\n        \', escape=False)\n    pass\nresponse.write(\'\\n\\n        <div class="\', escape=False)\nresponse.write(middle_columns)\nresponse.write(\'">\\n            \', escape=False)\nresponse.write(\'\\n            \', escape=False)\nresponse.write(\'\\n\\n\\n<h2>\', escape=False)\nresponse.write(T(Profile))\nresponse.write(\'</h2>\\n\', escape=False)\nresponse.write(crud.read(db.auth_user, user))\nresponse.write(\'\\n<h2>Messages</h2>\\n\', escape=False)\nresponse.write(\'\\n            \', escape=False)\nresponse.write(\'\\n        </div>\\n\\n        \', escape=False)\nif right_sidebar_enabled:\n    response.write(\'\\n        <div class="span3">\\n            \', escape=False)\n    response.write(\'\\n            <h3>Right Sidebar</h3>\\n            <p></p>\\n            \', escape=False)\n    response.write(\'\\n        </div>\\n        \', escape=False)\n    pass\nresponse.write(\'\\n    </section><!--/main-->\\n\\n    <!-- Footer ================================================== -->\\n    <div class="row">\\n        <footer class="footer span12" id="footer">\\n            <div class="footer-content">\\n                \', escape=False)\nresponse.write(\' <!-- this is default footer -->\\n                <div class="copyright pull-left">\', escape=False)\nresponse.write(T(\'Copyright\'))\nresponse.write(\' &#169; \', escape=False)\nresponse.write(request.now.year)\nresponse.write(\'</div>\\n                <div id="poweredBy" class="pull-right">\\n                    \', escape=False)\nresponse.write(T(\'Powered by\'))\nresponse.write(\'\\n                    <a href="http://www.web2py.com/">web2py</a>\\n                </div>\\n                \', escape=False)\nresponse.write(\'\\n            </div>\\n        </footer>\\n    </div>\\n\\n  </div> <!-- /container -->\\n\\n  <!-- The javascript =============================================\\n       (Placed at the end of the document so the pages load faster) -->\\n  <script>\\n    // this code improves bootstrap menus and adds dropdown support\\n    jQuery(function(){\\n      jQuery(\\\'.nav>li>a\\\').each(function(){\\n        if(jQuery(this).parent().find(\\\'ul\\\').length)\\n          jQuery(this).attr({\\\'class\\\':\\\'dropdown-toggle\\\',\\\'data-toggle\\\':\\\'dropdown\\\'}).append(\\\'<b class="caret"></b>\\\');\\n      });\\n      jQuery(\\\'.nav li li\\\').each(function(){\\n        if(jQuery(this).find(\\\'ul\\\').length)\\n          jQuery(this).children(\\\'a\\\').contents().before(\\\'<i class="chevron-right"></i>\\\');\\n      });\\n      if(jQuery(document).width()>=980) {\\n        jQuery(\\\'ul.nav li.dropdown\\\').hover(function() {\\n          jQuery(this).find(\\\'.dropdown-menu\\\').stop(true, true).delay(200).fadeIn();\\n        }, function() {\\n          jQuery(this).find(\\\'.dropdown-menu\\\').stop(true, true).delay(200).fadeOut();\\n        });\\n      }\\n      jQuery(\\\'ul.nav li.dropdown a\\\').click(function(){window.location=jQuery(this).attr(\\\'href\\\');});\\n      // make all buttons bootstrap buttons\\n      jQuery(\\\'button, form input[type="submit"], form input[type="button"]\\\').addClass(\\\'btn\\\').css({\\\'margin-right\\\':\\\'2px\\\',\\\'margin-bottom\\\':\\\'2px\\\'});\\n    });\\n  </script>\\n  <script src="\', escape=False)\nresponse.write(URL(\'static\',\'js/bootstrap.min.js\'))\nresponse.write(\'"></script>\\n  <!--[if lt IE 7 ]>\\n      <script src="\', escape=False)\nresponse.write(URL(\'static\',\'js/dd_belatedpng.js\'))\nresponse.write(\'"></script>\\n      <script> DD_belatedPNG.fix(\\\'img, .png_bg\\\'); //fix any <img> or .png_bg background-images </script>\\n      <![endif]-->\\n  \', escape=False)\nif response.google_analytics_id:\n    response.write(\'<script type="text/javascript"> var _gaq = _gaq || []; _gaq.push([\\\'_setAccount\\\', \\\'\', escape=False)\n    response.write(response.google_analytics_id)\n    response.write("\']); _gaq.push([\'_trackPageview\']); (function() { var ga = document.createElement(\'script\'); ga.type = \'text/javascript\'; ga.async = true; ga.src = (\'https:\' == document.location.protocol ? \'https://ssl\' : \'http://www\') + \'.google-analytics.com/ga.js\'; var s = document.getElementsByTagName(\'script\')[0]; s.parentNode.insertBefore(ga, s); })(); </script> ", escape=False)\n    pass\nresponse.write(\'\\n  <script src="\', escape=False)\nresponse.write(URL(\'static\',\'js/share.js\',vars=dict(static=URL(\'static\',\'images\'))))\nresponse.write(\'"></script>\\n</body>\\n</html>\\n\\n\', escape=False)'
p7
sS'snapshot'
p8
(dp9
S'exception'
p10
(dp11
S'__hash__'
p12
S"<method-wrapper '__hash__' of exceptions.NameError object>"
p13
sS'__setattr__'
p14
S"<method-wrapper '__setattr__' of exceptions.NameError object>"
p15
sS'__reduce_ex__'
p16
S'<built-in method __reduce_ex__ of exceptions.NameError object>'
p17
sS'__getslice__'
p18
S"<method-wrapper '__getslice__' of exceptions.NameError object>"
p19
sS'__getitem__'
p20
S"<method-wrapper '__getitem__' of exceptions.NameError object>"
p21
sS'__setstate__'
p22
S'<built-in method __setstate__ of exceptions.NameError object>'
p23
sS'args'
p24
S'("name \'Profile\' is not defined",)'
p25
sS'__reduce__'
p26
S'<built-in method __reduce__ of exceptions.NameError object>'
p27
sS'__str__'
p28
S"<method-wrapper '__str__' of exceptions.NameError object>"
p29
sS'__format__'
p30
S'<built-in method __format__ of exceptions.NameError object>'
p31
sS'__getattribute__'
p32
S"<method-wrapper '__getattribute__' of exceptions.NameError object>"
p33
sS'__class__'
p34
S"<type 'exceptions.NameError'>"
p35
sS'__unicode__'
p36
S'<built-in method __unicode__ of exceptions.NameError object>'
p37
sS'__delattr__'
p38
S"<method-wrapper '__delattr__' of exceptions.NameError object>"
p39
sS'__subclasshook__'
p40
S'<built-in method __subclasshook__ of type object>'
p41
sS'__repr__'
p42
S"<method-wrapper '__repr__' of exceptions.NameError object>"
p43
sS'__dict__'
p44
S'{}'
p45
sS'__sizeof__'
p46
S'<built-in method __sizeof__ of exceptions.NameError object>'
p47
sS'__doc__'
p48
S"'Name not found globally.'"
p49
sS'__init__'
p50
S"<method-wrapper '__init__' of exceptions.NameError object>"
p51
sS'__new__'
p52
S'<built-in method __new__ of type object>'
p53
ssS'evalue'
p54
S"name 'Profile' is not defined"
p55
sS'request'
p56
ccopy_reg
_reconstructor
p57
(cgluon.html
BEAUTIFY
p58
c__builtin__
object
p59
NtRp60
(dp61
S'attributes'
p62
(dp63
sS'components'
p64
(lp65
g57
(cgluon.html
TABLE
p66
g59
NtRp67
(dp68
g62
(dp69
S'level'
p70
I5
ssS'parent'
p71
Nsg64
(lp72
g57
(cgluon.html
TR
p73
g59
NtRp74
(dp75
g62
(dp76
sg71
g67
sg64
(lp77
g57
(cgluon.html
TD
p78
g59
NtRp79
(dp80
g62
(dp81
S'_style'
p82
S'font-weight:bold;vertical-align:top'
p83
ssg71
g74
sg64
(lp84
S'ajax'
p85
asbag57
(g78
g59
NtRp86
(dp87
g62
(dp88
S'_valign'
p89
S'top'
p90
ssg71
g74
sg64
(lp91
S':'
asbag57
(g78
g59
NtRp92
(dp93
g62
(dp94
sg71
g74
sg64
(lp95
g57
(g58
g59
NtRp96
(dp97
g62
(dp98
g70
I5
ssg71
g92
sg64
(lp99
S'False'
p100
asbasbasbag57
(g73
g59
NtRp101
(dp102
g62
(dp103
sg71
g67
sg64
(lp104
g57
(g78
g59
NtRp105
(dp106
g62
(dp107
g82
g83
ssg71
g101
sg64
(lp108
S'application'
p109
asbag57
(g78
g59
NtRp110
(dp111
g62
(dp112
g89
g90
ssg71
g101
sg64
(lp113
S':'
asbag57
(g78
g59
NtRp114
(dp115
g62
(dp116
sg71
g101
sg64
(lp117
g57
(g58
g59
NtRp118
(dp119
g62
(dp120
g70
I5
ssg71
g114
sg64
(lp121
S'miFacebook'
p122
asbasbasbag57
(g73
g59
NtRp123
(dp124
g62
(dp125
sg71
g67
sg64
(lp126
g57
(g78
g59
NtRp127
(dp128
g62
(dp129
g82
g83
ssg71
g123
sg64
(lp130
g24
asbag57
(g78
g59
NtRp131
(dp132
g62
(dp133
g89
g90
ssg71
g123
sg64
(lp134
S':'
asbag57
(g78
g59
NtRp135
(dp136
g62
(dp137
sg71
g123
sg64
(lp138
g57
(g58
g59
NtRp139
(dp140
g62
(dp141
g70
I5
ssg71
g135
sg64
(lp142
g57
(g66
g59
NtRp143
(dp144
g62
(dp145
g70
I4
ssg71
Nsg64
(lp146
sbasbasbasbag57
(g73
g59
NtRp147
(dp148
g62
(dp149
sg71
g67
sg64
(lp150
g57
(g78
g59
NtRp151
(dp152
g62
(dp153
g82
g83
ssg71
g147
sg64
(lp154
S'body'
p155
asbag57
(g78
g59
NtRp156
(dp157
g62
(dp158
g89
g90
ssg71
g147
sg64
(lp159
S':'
asbag57
(g78
g59
NtRp160
(dp161
g62
(dp162
sg71
g147
sg64
(lp163
g57
(g58
g59
NtRp164
(dp165
g62
(dp166
g70
I5
ssg71
g160
sg64
(lp167
S'<cStringIO.StringO object at 0x7ff99869c3e8>'
p168
asbasbasbag57
(g73
g59
NtRp169
(dp170
g62
(dp171
sg71
g67
sg64
(lp172
g57
(g78
g59
NtRp173
(dp174
g62
(dp175
g82
g83
ssg71
g169
sg64
(lp176
S'cid'
p177
asbag57
(g78
g59
NtRp178
(dp179
g62
(dp180
g89
g90
ssg71
g169
sg64
(lp181
S':'
asbag57
(g78
g59
NtRp182
(dp183
g62
(dp184
sg71
g169
sg64
(lp185
g57
(g58
g59
NtRp186
(dp187
g62
(dp188
g70
I5
ssg71
g182
sg64
(lp189
S'None'
p190
asbasbasbag57
(g73
g59
NtRp191
(dp192
g62
(dp193
sg71
g67
sg64
(lp194
g57
(g78
g59
NtRp195
(dp196
g62
(dp197
g82
g83
ssg71
g191
sg64
(lp198
S'client'
p199
asbag57
(g78
g59
NtRp200
(dp201
g62
(dp202
g89
g90
ssg71
g191
sg64
(lp203
S':'
asbag57
(g78
g59
NtRp204
(dp205
g62
(dp206
sg71
g191
sg64
(lp207
g57
(g58
g59
NtRp208
(dp209
g62
(dp210
g70
I5
ssg71
g204
sg64
(lp211
S'127.0.0.1'
p212
asbasbasbag57
(g73
g59
NtRp213
(dp214
g62
(dp215
sg71
g67
sg64
(lp216
g57
(g78
g59
NtRp217
(dp218
g62
(dp219
g82
g83
ssg71
g213
sg64
(lp220
S'controller'
p221
asbag57
(g78
g59
NtRp222
(dp223
g62
(dp224
g89
g90
ssg71
g213
sg64
(lp225
S':'
asbag57
(g78
g59
NtRp226
(dp227
g62
(dp228
sg71
g213
sg64
(lp229
g57
(g58
g59
NtRp230
(dp231
g62
(dp232
g70
I5
ssg71
g226
sg64
(lp233
S'default'
p234
asbasbasbag57
(g73
g59
NtRp235
(dp236
g62
(dp237
sg71
g67
sg64
(lp238
g57
(g78
g59
NtRp239
(dp240
g62
(dp241
g82
g83
ssg71
g235
sg64
(lp242
S'cookies'
p243
asbag57
(g78
g59
NtRp244
(dp245
g62
(dp246
g89
g90
ssg71
g235
sg64
(lp247
S':'
asbag57
(g78
g59
NtRp248
(dp249
g62
(dp250
sg71
g235
sg64
(lp251
g57
(g58
g59
NtRp252
(dp253
g62
(dp254
g70
I5
ssg71
g248
sg64
(lp255
g57
(g66
g59
NtRp256
(dp257
g62
(dp258
g70
I4
ssg71
Nsg64
(lp259
g57
(g73
g59
NtRp260
(dp261
g62
(dp262
sg71
g256
sg64
(lp263
g57
(g78
g59
NtRp264
(dp265
g62
(dp266
g82
g83
ssg71
g260
sg64
(lp267
S'session_id_admin'
p268
asbag57
(g78
g59
NtRp269
(dp270
g62
(dp271
g89
g90
ssg71
g260
sg64
(lp272
S':'
asbag57
(g78
g59
NtRp273
(dp274
g62
(dp275
sg71
g260
sg64
(lp276
g57
(g58
g59
NtRp277
(dp278
g62
(dp279
g70
I4
ssg71
g273
sg64
(lp280
S'127.0.0.1-648310c8-98be-48ff-a847-e0ccb4c7ef9c'
p281
ag57
(g66
g59
NtRp282
(dp283
g62
(dp284
g70
I3
ssg71
Nsg64
(lp285
g57
(g73
g59
NtRp286
(dp287
g62
(dp288
sg71
g282
sg64
(lp289
g57
(g78
g59
NtRp290
(dp291
g62
(dp292
g82
g83
ssg71
g286
sg64
(lp293
S'comment'
p294
asbag57
(g78
g59
NtRp295
(dp296
g62
(dp297
g89
g90
ssg71
g286
sg64
(lp298
S':'
asbag57
(g78
g59
NtRp299
(dp300
g62
(dp301
sg71
g286
sg64
(lp302
g57
(g58
g59
NtRp303
(dp304
g62
(dp305
g70
I3
ssg71
g299
sg64
(lp306
S''
asbasbasbag57
(g73
g59
NtRp307
(dp308
g62
(dp309
sg71
g282
sg64
(lp310
g57
(g78
g59
NtRp311
(dp312
g62
(dp313
g82
g83
ssg71
g307
sg64
(lp314
S'domain'
p315
asbag57
(g78
g59
NtRp316
(dp317
g62
(dp318
g89
g90
ssg71
g307
sg64
(lp319
S':'
asbag57
(g78
g59
NtRp320
(dp321
g62
(dp322
sg71
g307
sg64
(lp323
g57
(g58
g59
NtRp324
(dp325
g62
(dp326
g70
I3
ssg71
g320
sg64
(lp327
S''
asbasbasbag57
(g73
g59
NtRp328
(dp329
g62
(dp330
sg71
g282
sg64
(lp331
g57
(g78
g59
NtRp332
(dp333
g62
(dp334
g82
g83
ssg71
g328
sg64
(lp335
S'expires'
p336
asbag57
(g78
g59
NtRp337
(dp338
g62
(dp339
g89
g90
ssg71
g328
sg64
(lp340
S':'
asbag57
(g78
g59
NtRp341
(dp342
g62
(dp343
sg71
g328
sg64
(lp344
g57
(g58
g59
NtRp345
(dp346
g62
(dp347
g70
I3
ssg71
g341
sg64
(lp348
S''
asbasbasbag57
(g73
g59
NtRp349
(dp350
g62
(dp351
sg71
g282
sg64
(lp352
g57
(g78
g59
NtRp353
(dp354
g62
(dp355
g82
g83
ssg71
g349
sg64
(lp356
S'httponly'
p357
asbag57
(g78
g59
NtRp358
(dp359
g62
(dp360
g89
g90
ssg71
g349
sg64
(lp361
S':'
asbag57
(g78
g59
NtRp362
(dp363
g62
(dp364
sg71
g349
sg64
(lp365
g57
(g58
g59
NtRp366
(dp367
g62
(dp368
g70
I3
ssg71
g362
sg64
(lp369
S''
asbasbasbag57
(g73
g59
NtRp370
(dp371
g62
(dp372
sg71
g282
sg64
(lp373
g57
(g78
g59
NtRp374
(dp375
g62
(dp376
g82
g83
ssg71
g370
sg64
(lp377
S'max-age'
p378
asbag57
(g78
g59
NtRp379
(dp380
g62
(dp381
g89
g90
ssg71
g370
sg64
(lp382
S':'
asbag57
(g78
g59
NtRp383
(dp384
g62
(dp385
sg71
g370
sg64
(lp386
g57
(g58
g59
NtRp387
(dp388
g62
(dp389
g70
I3
ssg71
g383
sg64
(lp390
S''
asbasbasbag57
(g73
g59
NtRp391
(dp392
g62
(dp393
sg71
g282
sg64
(lp394
g57
(g78
g59
NtRp395
(dp396
g62
(dp397
g82
g83
ssg71
g391
sg64
(lp398
S'path'
p399
asbag57
(g78
g59
NtRp400
(dp401
g62
(dp402
g89
g90
ssg71
g391
sg64
(lp403
S':'
asbag57
(g78
g59
NtRp404
(dp405
g62
(dp406
sg71
g391
sg64
(lp407
g57
(g58
g59
NtRp408
(dp409
g62
(dp410
g70
I3
ssg71
g404
sg64
(lp411
S''
asbasbasbag57
(g73
g59
NtRp412
(dp413
g62
(dp414
sg71
g282
sg64
(lp415
g57
(g78
g59
NtRp416
(dp417
g62
(dp418
g82
g83
ssg71
g412
sg64
(lp419
S'secure'
p420
asbag57
(g78
g59
NtRp421
(dp422
g62
(dp423
g89
g90
ssg71
g412
sg64
(lp424
S':'
asbag57
(g78
g59
NtRp425
(dp426
g62
(dp427
sg71
g412
sg64
(lp428
g57
(g58
g59
NtRp429
(dp430
g62
(dp431
g70
I3
ssg71
g425
sg64
(lp432
S''
asbasbasbag57
(g73
g59
NtRp433
(dp434
g62
(dp435
sg71
g282
sg64
(lp436
g57
(g78
g59
NtRp437
(dp438
g62
(dp439
g82
g83
ssg71
g433
sg64
(lp440
S'version'
p441
asbag57
(g78
g59
NtRp442
(dp443
g62
(dp444
g89
g90
ssg71
g433
sg64
(lp445
S':'
asbag57
(g78
g59
NtRp446
(dp447
g62
(dp448
sg71
g433
sg64
(lp449
g57
(g58
g59
NtRp450
(dp451
g62
(dp452
g70
I3
ssg71
g446
sg64
(lp453
S''
asbasbasbasbasbasbasbag57
(g73
g59
NtRp454
(dp455
g62
(dp456
sg71
g256
sg64
(lp457
g57
(g78
g59
NtRp458
(dp459
g62
(dp460
g82
g83
ssg71
g454
sg64
(lp461
S'session_id_mifacebook'
p462
asbag57
(g78
g59
NtRp463
(dp464
g62
(dp465
g89
g90
ssg71
g454
sg64
(lp466
S':'
asbag57
(g78
g59
NtRp467
(dp468
g62
(dp469
sg71
g454
sg64
(lp470
g57
(g58
g59
NtRp471
(dp472
g62
(dp473
g70
I4
ssg71
g467
sg64
(lp474
S'127.0.0.1-b6b45cf0-6bef-4835-b080-b2fa7ac26fc0'
p475
ag57
(g66
g59
NtRp476
(dp477
g62
(dp478
g70
I3
ssg71
Nsg64
(lp479
g57
(g73
g59
NtRp480
(dp481
g62
(dp482
sg71
g476
sg64
(lp483
g57
(g78
g59
NtRp484
(dp485
g62
(dp486
g82
g83
ssg71
g480
sg64
(lp487
g294
asbag57
(g78
g59
NtRp488
(dp489
g62
(dp490
g89
g90
ssg71
g480
sg64
(lp491
S':'
asbag57
(g78
g59
NtRp492
(dp493
g62
(dp494
sg71
g480
sg64
(lp495
g57
(g58
g59
NtRp496
(dp497
g62
(dp498
g70
I3
ssg71
g492
sg64
(lp499
S''
asbasbasbag57
(g73
g59
NtRp500
(dp501
g62
(dp502
sg71
g476
sg64
(lp503
g57
(g78
g59
NtRp504
(dp505
g62
(dp506
g82
g83
ssg71
g500
sg64
(lp507
g315
asbag57
(g78
g59
NtRp508
(dp509
g62
(dp510
g89
g90
ssg71
g500
sg64
(lp511
S':'
asbag57
(g78
g59
NtRp512
(dp513
g62
(dp514
sg71
g500
sg64
(lp515
g57
(g58
g59
NtRp516
(dp517
g62
(dp518
g70
I3
ssg71
g512
sg64
(lp519
S''
asbasbasbag57
(g73
g59
NtRp520
(dp521
g62
(dp522
sg71
g476
sg64
(lp523
g57
(g78
g59
NtRp524
(dp525
g62
(dp526
g82
g83
ssg71
g520
sg64
(lp527
g336
asbag57
(g78
g59
NtRp528
(dp529
g62
(dp530
g89
g90
ssg71
g520
sg64
(lp531
S':'
asbag57
(g78
g59
NtRp532
(dp533
g62
(dp534
sg71
g520
sg64
(lp535
g57
(g58
g59
NtRp536
(dp537
g62
(dp538
g70
I3
ssg71
g532
sg64
(lp539
S''
asbasbasbag57
(g73
g59
NtRp540
(dp541
g62
(dp542
sg71
g476
sg64
(lp543
g57
(g78
g59
NtRp544
(dp545
g62
(dp546
g82
g83
ssg71
g540
sg64
(lp547
g357
asbag57
(g78
g59
NtRp548
(dp549
g62
(dp550
g89
g90
ssg71
g540
sg64
(lp551
S':'
asbag57
(g78
g59
NtRp552
(dp553
g62
(dp554
sg71
g540
sg64
(lp555
g57
(g58
g59
NtRp556
(dp557
g62
(dp558
g70
I3
ssg71
g552
sg64
(lp559
S''
asbasbasbag57
(g73
g59
NtRp560
(dp561
g62
(dp562
sg71
g476
sg64
(lp563
g57
(g78
g59
NtRp564
(dp565
g62
(dp566
g82
g83
ssg71
g560
sg64
(lp567
g378
asbag57
(g78
g59
NtRp568
(dp569
g62
(dp570
g89
g90
ssg71
g560
sg64
(lp571
S':'
asbag57
(g78
g59
NtRp572
(dp573
g62
(dp574
sg71
g560
sg64
(lp575
g57
(g58
g59
NtRp576
(dp577
g62
(dp578
g70
I3
ssg71
g572
sg64
(lp579
S''
asbasbasbag57
(g73
g59
NtRp580
(dp581
g62
(dp582
sg71
g476
sg64
(lp583
g57
(g78
g59
NtRp584
(dp585
g62
(dp586
g82
g83
ssg71
g580
sg64
(lp587
g399
asbag57
(g78
g59
NtRp588
(dp589
g62
(dp590
g89
g90
ssg71
g580
sg64
(lp591
S':'
asbag57
(g78
g59
NtRp592
(dp593
g62
(dp594
sg71
g580
sg64
(lp595
g57
(g58
g59
NtRp596
(dp597
g62
(dp598
g70
I3
ssg71
g592
sg64
(lp599
S''
asbasbasbag57
(g73
g59
NtRp600
(dp601
g62
(dp602
sg71
g476
sg64
(lp603
g57
(g78
g59
NtRp604
(dp605
g62
(dp606
g82
g83
ssg71
g600
sg64
(lp607
g420
asbag57
(g78
g59
NtRp608
(dp609
g62
(dp610
g89
g90
ssg71
g600
sg64
(lp611
S':'
asbag57
(g78
g59
NtRp612
(dp613
g62
(dp614
sg71
g600
sg64
(lp615
g57
(g58
g59
NtRp616
(dp617
g62
(dp618
g70
I3
ssg71
g612
sg64
(lp619
S''
asbasbasbag57
(g73
g59
NtRp620
(dp621
g62
(dp622
sg71
g476
sg64
(lp623
g57
(g78
g59
NtRp624
(dp625
g62
(dp626
g82
g83
ssg71
g620
sg64
(lp627
g441
asbag57
(g78
g59
NtRp628
(dp629
g62
(dp630
g89
g90
ssg71
g620
sg64
(lp631
S':'
asbag57
(g78
g59
NtRp632
(dp633
g62
(dp634
sg71
g620
sg64
(lp635
g57
(g58
g59
NtRp636
(dp637
g62
(dp638
g70
I3
ssg71
g632
sg64
(lp639
S''
asbasbasbasbasbasbasbag57
(g73
g59
NtRp640
(dp641
g62
(dp642
sg71
g256
sg64
(lp643
g57
(g78
g59
NtRp644
(dp645
g62
(dp646
g82
g83
ssg71
g640
sg64
(lp647
S'session_id_welcome'
p648
asbag57
(g78
g59
NtRp649
(dp650
g62
(dp651
g89
g90
ssg71
g640
sg64
(lp652
S':'
asbag57
(g78
g59
NtRp653
(dp654
g62
(dp655
sg71
g640
sg64
(lp656
g57
(g58
g59
NtRp657
(dp658
g62
(dp659
g70
I4
ssg71
g653
sg64
(lp660
S'127.0.0.1-56bfc59d-b4a6-4c7d-8b8a-873f3bc16500'
p661
ag57
(g66
g59
NtRp662
(dp663
g62
(dp664
g70
I3
ssg71
Nsg64
(lp665
g57
(g73
g59
NtRp666
(dp667
g62
(dp668
sg71
g662
sg64
(lp669
g57
(g78
g59
NtRp670
(dp671
g62
(dp672
g82
g83
ssg71
g666
sg64
(lp673
g294
asbag57
(g78
g59
NtRp674
(dp675
g62
(dp676
g89
g90
ssg71
g666
sg64
(lp677
S':'
asbag57
(g78
g59
NtRp678
(dp679
g62
(dp680
sg71
g666
sg64
(lp681
g57
(g58
g59
NtRp682
(dp683
g62
(dp684
g70
I3
ssg71
g678
sg64
(lp685
S''
asbasbasbag57
(g73
g59
NtRp686
(dp687
g62
(dp688
sg71
g662
sg64
(lp689
g57
(g78
g59
NtRp690
(dp691
g62
(dp692
g82
g83
ssg71
g686
sg64
(lp693
g315
asbag57
(g78
g59
NtRp694
(dp695
g62
(dp696
g89
g90
ssg71
g686
sg64
(lp697
S':'
asbag57
(g78
g59
NtRp698
(dp699
g62
(dp700
sg71
g686
sg64
(lp701
g57
(g58
g59
NtRp702
(dp703
g62
(dp704
g70
I3
ssg71
g698
sg64
(lp705
S''
asbasbasbag57
(g73
g59
NtRp706
(dp707
g62
(dp708
sg71
g662
sg64
(lp709
g57
(g78
g59
NtRp710
(dp711
g62
(dp712
g82
g83
ssg71
g706
sg64
(lp713
g336
asbag57
(g78
g59
NtRp714
(dp715
g62
(dp716
g89
g90
ssg71
g706
sg64
(lp717
S':'
asbag57
(g78
g59
NtRp718
(dp719
g62
(dp720
sg71
g706
sg64
(lp721
g57
(g58
g59
NtRp722
(dp723
g62
(dp724
g70
I3
ssg71
g718
sg64
(lp725
S''
asbasbasbag57
(g73
g59
NtRp726
(dp727
g62
(dp728
sg71
g662
sg64
(lp729
g57
(g78
g59
NtRp730
(dp731
g62
(dp732
g82
g83
ssg71
g726
sg64
(lp733
g357
asbag57
(g78
g59
NtRp734
(dp735
g62
(dp736
g89
g90
ssg71
g726
sg64
(lp737
S':'
asbag57
(g78
g59
NtRp738
(dp739
g62
(dp740
sg71
g726
sg64
(lp741
g57
(g58
g59
NtRp742
(dp743
g62
(dp744
g70
I3
ssg71
g738
sg64
(lp745
S''
asbasbasbag57
(g73
g59
NtRp746
(dp747
g62
(dp748
sg71
g662
sg64
(lp749
g57
(g78
g59
NtRp750
(dp751
g62
(dp752
g82
g83
ssg71
g746
sg64
(lp753
g378
asbag57
(g78
g59
NtRp754
(dp755
g62
(dp756
g89
g90
ssg71
g746
sg64
(lp757
S':'
asbag57
(g78
g59
NtRp758
(dp759
g62
(dp760
sg71
g746
sg64
(lp761
g57
(g58
g59
NtRp762
(dp763
g62
(dp764
g70
I3
ssg71
g758
sg64
(lp765
S''
asbasbasbag57
(g73
g59
NtRp766
(dp767
g62
(dp768
sg71
g662
sg64
(lp769
g57
(g78
g59
NtRp770
(dp771
g62
(dp772
g82
g83
ssg71
g766
sg64
(lp773
g399
asbag57
(g78
g59
NtRp774
(dp775
g62
(dp776
g89
g90
ssg71
g766
sg64
(lp777
S':'
asbag57
(g78
g59
NtRp778
(dp779
g62
(dp780
sg71
g766
sg64
(lp781
g57
(g58
g59
NtRp782
(dp783
g62
(dp784
g70
I3
ssg71
g778
sg64
(lp785
S''
asbasbasbag57
(g73
g59
NtRp786
(dp787
g62
(dp788
sg71
g662
sg64
(lp789
g57
(g78
g59
NtRp790
(dp791
g62
(dp792
g82
g83
ssg71
g786
sg64
(lp793
g420
asbag57
(g78
g59
NtRp794
(dp795
g62
(dp796
g89
g90
ssg71
g786
sg64
(lp797
S':'
asbag57
(g78
g59
NtRp798
(dp799
g62
(dp800
sg71
g786
sg64
(lp801
g57
(g58
g59
NtRp802
(dp803
g62
(dp804
g70
I3
ssg71
g798
sg64
(lp805
S''
asbasbasbag57
(g73
g59
NtRp806
(dp807
g62
(dp808
sg71
g662
sg64
(lp809
g57
(g78
g59
NtRp810
(dp811
g62
(dp812
g82
g83
ssg71
g806
sg64
(lp813
g441
asbag57
(g78
g59
NtRp814
(dp815
g62
(dp816
g89
g90
ssg71
g806
sg64
(lp817
S':'
asbag57
(g78
g59
NtRp818
(dp819
g62
(dp820
sg71
g806
sg64
(lp821
g57
(g58
g59
NtRp822
(dp823
g62
(dp824
g70
I3
ssg71
g818
sg64
(lp825
S''
asbasbasbasbasbasbasbasbasbasbasbag57
(g73
g59
NtRp826
(dp827
g62
(dp828
sg71
g67
sg64
(lp829
g57
(g78
g59
NtRp830
(dp831
g62
(dp832
g82
g83
ssg71
g826
sg64
(lp833
S'env'
p834
asbag57
(g78
g59
NtRp835
(dp836
g62
(dp837
g89
g90
ssg71
g826
sg64
(lp838
S':'
asbag57
(g78
g59
NtRp839
(dp840
g62
(dp841
sg71
g826
sg64
(lp842
g57
(g58
g59
NtRp843
(dp844
g62
(dp845
g70
I5
ssg71
g839
sg64
(lp846
g57
(g66
g59
NtRp847
(dp848
g62
(dp849
g70
I4
ssg71
Nsg64
(lp850
g57
(g73
g59
NtRp851
(dp852
g62
(dp853
sg71
g847
sg64
(lp854
g57
(g78
g59
NtRp855
(dp856
g62
(dp857
g82
g83
ssg71
g851
sg64
(lp858
S'app_folders'
p859
asbag57
(g78
g59
NtRp860
(dp861
g62
(dp862
g89
g90
ssg71
g851
sg64
(lp863
S':'
asbag57
(g78
g59
NtRp864
(dp865
g62
(dp866
sg71
g851
sg64
(lp867
g57
(g58
g59
NtRp868
(dp869
g62
(dp870
g70
I4
ssg71
g864
sg64
(lp871
S"set(['/home/alumno/Escritorio/web2py/applications/miFacebook/', '/home/alumno/Escritorio/web2py/applications/admin/', '/home/alumno/Escritorio/web2py/applications/welcome/'])"
p872
asbasbasbag57
(g73
g59
NtRp873
(dp874
g62
(dp875
sg71
g847
sg64
(lp876
g57
(g78
g59
NtRp877
(dp878
g62
(dp879
g82
g83
ssg71
g873
sg64
(lp880
S'applications_parent'
p881
asbag57
(g78
g59
NtRp882
(dp883
g62
(dp884
g89
g90
ssg71
g873
sg64
(lp885
S':'
asbag57
(g78
g59
NtRp886
(dp887
g62
(dp888
sg71
g873
sg64
(lp889
g57
(g58
g59
NtRp890
(dp891
g62
(dp892
g70
I4
ssg71
g886
sg64
(lp893
S'/home/alumno/Escritorio/web2py'
p894
asbasbasbag57
(g73
g59
NtRp895
(dp896
g62
(dp897
sg71
g847
sg64
(lp898
g57
(g78
g59
NtRp899
(dp900
g62
(dp901
g82
g83
ssg71
g895
sg64
(lp902
S'cmd_args'
p903
asbag57
(g78
g59
NtRp904
(dp905
g62
(dp906
g89
g90
ssg71
g895
sg64
(lp907
S':'
asbag57
(g78
g59
NtRp908
(dp909
g62
(dp910
sg71
g895
sg64
(lp911
g57
(g58
g59
NtRp912
(dp913
g62
(dp914
g70
I4
ssg71
g908
sg64
(lp915
g57
(g66
g59
NtRp916
(dp917
g62
(dp918
g70
I3
ssg71
Nsg64
(lp919
sbasbasbasbag57
(g73
g59
NtRp920
(dp921
g62
(dp922
sg71
g847
sg64
(lp923
g57
(g78
g59
NtRp924
(dp925
g62
(dp926
g82
g83
ssg71
g920
sg64
(lp927
S'cmd_options'
p928
asbag57
(g78
g59
NtRp929
(dp930
g62
(dp931
g89
g90
ssg71
g920
sg64
(lp932
S':'
asbag57
(g78
g59
NtRp933
(dp934
g62
(dp935
sg71
g920
sg64
(lp936
g57
(g58
g59
NtRp937
(dp938
g62
(dp939
g70
I4
ssg71
g933
sg64
(lp940
S"<Values at 0x2ac59e0: {'verbose': False, 'ip': '127.0.0.1', 'with_scheduler': False, 'ips': ['127.0.1.1'], 'shutdown_timeout': 5, 'taskbar': False, 'port': 8000, 'maxthreads': None, 'softcron': False, 'server_name': '2daw1', 'bpython': False, 'nogui': False, 'nocron': False, 'extcron': False, 'run_system_tests': False, 'test': None, 'folder': '/home/alumno/Escritorio/web2py', 'config': '', 'import_models': False, 'winservice': '', 'shell': None, 'run': '', 'log_filename': 'httpserver.log', 'debuglevel': 30, 'args': [''], 'socket_timeout': 5, 'ssl_ca_certificate': None, 'scheduler': None, 'profiler_filename': None, 'ssl_private_key': '', 'scheduler_groups': None, 'password': '<ask>', 'request_queue_size': 5, 'ssl_certificate': '', 'cronjob': False, 'numthreads': None, 'quiet': False, 'interfaces': None, 'minthreads': None, 'timeout': 10, 'plain': False, 'nobanner': False, 'pid_filename': 'httpserver.pid'}>"
p941
asbasbasbag57
(g73
g59
NtRp942
(dp943
g62
(dp944
sg71
g847
sg64
(lp945
g57
(g78
g59
NtRp946
(dp947
g62
(dp948
g82
g83
ssg71
g942
sg64
(lp949
S'db_sessions'
p950
asbag57
(g78
g59
NtRp951
(dp952
g62
(dp953
g89
g90
ssg71
g942
sg64
(lp954
S':'
asbag57
(g78
g59
NtRp955
(dp956
g62
(dp957
sg71
g942
sg64
(lp958
g57
(g58
g59
NtRp959
(dp960
g62
(dp961
g70
I4
ssg71
g955
sg64
(lp962
S'set([])'
p963
asbasbasbag57
(g73
g59
NtRp964
(dp965
g62
(dp966
sg71
g847
sg64
(lp967
g57
(g78
g59
NtRp968
(dp969
g62
(dp970
g82
g83
ssg71
g964
sg64
(lp971
S'debugging'
p972
asbag57
(g78
g59
NtRp973
(dp974
g62
(dp975
g89
g90
ssg71
g964
sg64
(lp976
S':'
asbag57
(g78
g59
NtRp977
(dp978
g62
(dp979
sg71
g964
sg64
(lp980
g57
(g58
g59
NtRp981
(dp982
g62
(dp983
g70
I4
ssg71
g977
sg64
(lp984
g100
asbasbasbag57
(g73
g59
NtRp985
(dp986
g62
(dp987
sg71
g847
sg64
(lp988
g57
(g78
g59
NtRp989
(dp990
g62
(dp991
g82
g83
ssg71
g985
sg64
(lp992
S'gluon_parent'
p993
asbag57
(g78
g59
NtRp994
(dp995
g62
(dp996
g89
g90
ssg71
g985
sg64
(lp997
S':'
asbag57
(g78
g59
NtRp998
(dp999
g62
(dp1000
sg71
g985
sg64
(lp1001
g57
(g58
g59
NtRp1002
(dp1003
g62
(dp1004
g70
I4
ssg71
g998
sg64
(lp1005
S'/home/alumno/Escritorio/web2py'
p1006
asbasbasbag57
(g73
g59
NtRp1007
(dp1008
g62
(dp1009
sg71
g847
sg64
(lp1010
g57
(g78
g59
NtRp1011
(dp1012
g62
(dp1013
g82
g83
ssg71
g1007
sg64
(lp1014
S'http_accept'
p1015
asbag57
(g78
g59
NtRp1016
(dp1017
g62
(dp1018
g89
g90
ssg71
g1007
sg64
(lp1019
S':'
asbag57
(g78
g59
NtRp1020
(dp1021
g62
(dp1022
sg71
g1007
sg64
(lp1023
g57
(g58
g59
NtRp1024
(dp1025
g62
(dp1026
g70
I4
ssg71
g1020
sg64
(lp1027
S'text/html,application/xhtml+xml,application/xml;q=0.9,*/*;q=0.8'
p1028
asbasbasbag57
(g73
g59
NtRp1029
(dp1030
g62
(dp1031
sg71
g847
sg64
(lp1032
g57
(g78
g59
NtRp1033
(dp1034
g62
(dp1035
g82
g83
ssg71
g1029
sg64
(lp1036
S'http_accept_encoding'
p1037
asbag57
(g78
g59
NtRp1038
(dp1039
g62
(dp1040
g89
g90
ssg71
g1029
sg64
(lp1041
S':'
asbag57
(g78
g59
NtRp1042
(dp1043
g62
(dp1044
sg71
g1029
sg64
(lp1045
g57
(g58
g59
NtRp1046
(dp1047
g62
(dp1048
g70
I4
ssg71
g1042
sg64
(lp1049
S'gzip, deflate'
p1050
asbasbasbag57
(g73
g59
NtRp1051
(dp1052
g62
(dp1053
sg71
g847
sg64
(lp1054
g57
(g78
g59
NtRp1055
(dp1056
g62
(dp1057
g82
g83
ssg71
g1051
sg64
(lp1058
S'http_accept_language'
p1059
asbag57
(g78
g59
NtRp1060
(dp1061
g62
(dp1062
g89
g90
ssg71
g1051
sg64
(lp1063
S':'
asbag57
(g78
g59
NtRp1064
(dp1065
g62
(dp1066
sg71
g1051
sg64
(lp1067
g57
(g58
g59
NtRp1068
(dp1069
g62
(dp1070
g70
I4
ssg71
g1064
sg64
(lp1071
S'es-es,es;q=0.8,en-us;q=0.6,en;q=0.4,de-de;q=0.2'
p1072
asbasbasbag57
(g73
g59
NtRp1073
(dp1074
g62
(dp1075
sg71
g847
sg64
(lp1076
g57
(g78
g59
NtRp1077
(dp1078
g62
(dp1079
g82
g83
ssg71
g1073
sg64
(lp1080
S'http_cache_control'
p1081
asbag57
(g78
g59
NtRp1082
(dp1083
g62
(dp1084
g89
g90
ssg71
g1073
sg64
(lp1085
S':'
asbag57
(g78
g59
NtRp1086
(dp1087
g62
(dp1088
sg71
g1073
sg64
(lp1089
g57
(g58
g59
NtRp1090
(dp1091
g62
(dp1092
g70
I4
ssg71
g1086
sg64
(lp1093
S'max-age=0'
p1094
asbasbasbag57
(g73
g59
NtRp1095
(dp1096
g62
(dp1097
sg71
g847
sg64
(lp1098
g57
(g78
g59
NtRp1099
(dp1100
g62
(dp1101
g82
g83
ssg71
g1095
sg64
(lp1102
S'http_connection'
p1103
asbag57
(g78
g59
NtRp1104
(dp1105
g62
(dp1106
g89
g90
ssg71
g1095
sg64
(lp1107
S':'
asbag57
(g78
g59
NtRp1108
(dp1109
g62
(dp1110
sg71
g1095
sg64
(lp1111
g57
(g58
g59
NtRp1112
(dp1113
g62
(dp1114
g70
I4
ssg71
g1108
sg64
(lp1115
S'keep-alive'
p1116
asbasbasbag57
(g73
g59
NtRp1117
(dp1118
g62
(dp1119
sg71
g847
sg64
(lp1120
g57
(g78
g59
NtRp1121
(dp1122
g62
(dp1123
g82
g83
ssg71
g1117
sg64
(lp1124
S'http_cookie'
p1125
asbag57
(g78
g59
NtRp1126
(dp1127
g62
(dp1128
g89
g90
ssg71
g1117
sg64
(lp1129
S':'
asbag57
(g78
g59
NtRp1130
(dp1131
g62
(dp1132
sg71
g1117
sg64
(lp1133
g57
(g58
g59
NtRp1134
(dp1135
g62
(dp1136
g70
I4
ssg71
g1130
sg64
(lp1137
S'session_id_welcome=127.0.0.1-56bfc59d-b4a6-4c7d-8b8a-873f3bc16500; session_id_admin=127.0.0.1-648310c8-98be-48ff-a847-e0ccb4c7ef9c; session_id_mifacebook=127.0.0.1-b6b45cf0-6bef-4835-b080-b2fa7ac26fc0'
p1138
asbasbasbag57
(g73
g59
NtRp1139
(dp1140
g62
(dp1141
sg71
g847
sg64
(lp1142
g57
(g78
g59
NtRp1143
(dp1144
g62
(dp1145
g82
g83
ssg71
g1139
sg64
(lp1146
S'http_host'
p1147
asbag57
(g78
g59
NtRp1148
(dp1149
g62
(dp1150
g89
g90
ssg71
g1139
sg64
(lp1151
S':'
asbag57
(g78
g59
NtRp1152
(dp1153
g62
(dp1154
sg71
g1139
sg64
(lp1155
g57
(g58
g59
NtRp1156
(dp1157
g62
(dp1158
g70
I4
ssg71
g1152
sg64
(lp1159
S'127.0.0.1:8000'
p1160
asbasbasbag57
(g73
g59
NtRp1161
(dp1162
g62
(dp1163
sg71
g847
sg64
(lp1164
g57
(g78
g59
NtRp1165
(dp1166
g62
(dp1167
g82
g83
ssg71
g1161
sg64
(lp1168
S'http_user_agent'
p1169
asbag57
(g78
g59
NtRp1170
(dp1171
g62
(dp1172
g89
g90
ssg71
g1161
sg64
(lp1173
S':'
asbag57
(g78
g59
NtRp1174
(dp1175
g62
(dp1176
sg71
g1161
sg64
(lp1177
g57
(g58
g59
NtRp1178
(dp1179
g62
(dp1180
g70
I4
ssg71
g1174
sg64
(lp1181
S'Mozilla/5.0 (X11; Ubuntu; Linux x86_64; rv:15.0) Gecko/20100101 Firefox/15.0.1'
p1182
asbasbasbag57
(g73
g59
NtRp1183
(dp1184
g62
(dp1185
sg71
g847
sg64
(lp1186
g57
(g78
g59
NtRp1187
(dp1188
g62
(dp1189
g82
g83
ssg71
g1183
sg64
(lp1190
S'is_jython'
p1191
asbag57
(g78
g59
NtRp1192
(dp1193
g62
(dp1194
g89
g90
ssg71
g1183
sg64
(lp1195
S':'
asbag57
(g78
g59
NtRp1196
(dp1197
g62
(dp1198
sg71
g1183
sg64
(lp1199
g57
(g58
g59
NtRp1200
(dp1201
g62
(dp1202
g70
I4
ssg71
g1196
sg64
(lp1203
g100
asbasbasbag57
(g73
g59
NtRp1204
(dp1205
g62
(dp1206
sg71
g847
sg64
(lp1207
g57
(g78
g59
NtRp1208
(dp1209
g62
(dp1210
g82
g83
ssg71
g1204
sg64
(lp1211
S'is_pypy'
p1212
asbag57
(g78
g59
NtRp1213
(dp1214
g62
(dp1215
g89
g90
ssg71
g1204
sg64
(lp1216
S':'
asbag57
(g78
g59
NtRp1217
(dp1218
g62
(dp1219
sg71
g1204
sg64
(lp1220
g57
(g58
g59
NtRp1221
(dp1222
g62
(dp1223
g70
I4
ssg71
g1217
sg64
(lp1224
g100
asbasbasbag57
(g73
g59
NtRp1225
(dp1226
g62
(dp1227
sg71
g847
sg64
(lp1228
g57
(g78
g59
NtRp1229
(dp1230
g62
(dp1231
g82
g83
ssg71
g1225
sg64
(lp1232
S'path_info'
p1233
asbag57
(g78
g59
NtRp1234
(dp1235
g62
(dp1236
g89
g90
ssg71
g1225
sg64
(lp1237
S':'
asbag57
(g78
g59
NtRp1238
(dp1239
g62
(dp1240
sg71
g1225
sg64
(lp1241
g57
(g58
g59
NtRp1242
(dp1243
g62
(dp1244
g70
I4
ssg71
g1238
sg64
(lp1245
S'/miFacebook/default/wall'
p1246
asbasbasbag57
(g73
g59
NtRp1247
(dp1248
g62
(dp1249
sg71
g847
sg64
(lp1250
g57
(g78
g59
NtRp1251
(dp1252
g62
(dp1253
g82
g83
ssg71
g1247
sg64
(lp1254
S'query_string'
p1255
asbag57
(g78
g59
NtRp1256
(dp1257
g62
(dp1258
g89
g90
ssg71
g1247
sg64
(lp1259
S':'
asbag57
(g78
g59
NtRp1260
(dp1261
g62
(dp1262
sg71
g1247
sg64
(lp1263
g57
(g58
g59
NtRp1264
(dp1265
g62
(dp1266
g70
I4
ssg71
g1260
sg64
(lp1267
S''
asbasbasbag57
(g73
g59
NtRp1268
(dp1269
g62
(dp1270
sg71
g847
sg64
(lp1271
g57
(g78
g59
NtRp1272
(dp1273
g62
(dp1274
g82
g83
ssg71
g1268
sg64
(lp1275
S'remote_addr'
p1276
asbag57
(g78
g59
NtRp1277
(dp1278
g62
(dp1279
g89
g90
ssg71
g1268
sg64
(lp1280
S':'
asbag57
(g78
g59
NtRp1281
(dp1282
g62
(dp1283
sg71
g1268
sg64
(lp1284
g57
(g58
g59
NtRp1285
(dp1286
g62
(dp1287
g70
I4
ssg71
g1281
sg64
(lp1288
g212
asbasbasbag57
(g73
g59
NtRp1289
(dp1290
g62
(dp1291
sg71
g847
sg64
(lp1292
g57
(g78
g59
NtRp1293
(dp1294
g62
(dp1295
g82
g83
ssg71
g1289
sg64
(lp1296
S'remote_port'
p1297
asbag57
(g78
g59
NtRp1298
(dp1299
g62
(dp1300
g89
g90
ssg71
g1289
sg64
(lp1301
S':'
asbag57
(g78
g59
NtRp1302
(dp1303
g62
(dp1304
sg71
g1289
sg64
(lp1305
g57
(g58
g59
NtRp1306
(dp1307
g62
(dp1308
g70
I4
ssg71
g1302
sg64
(lp1309
S'58413'
p1310
asbasbasbag57
(g73
g59
NtRp1311
(dp1312
g62
(dp1313
sg71
g847
sg64
(lp1314
g57
(g78
g59
NtRp1315
(dp1316
g62
(dp1317
g82
g83
ssg71
g1311
sg64
(lp1318
S'request_method'
p1319
asbag57
(g78
g59
NtRp1320
(dp1321
g62
(dp1322
g89
g90
ssg71
g1311
sg64
(lp1323
S':'
asbag57
(g78
g59
NtRp1324
(dp1325
g62
(dp1326
sg71
g1311
sg64
(lp1327
g57
(g58
g59
NtRp1328
(dp1329
g62
(dp1330
g70
I4
ssg71
g1324
sg64
(lp1331
S'GET'
p1332
asbasbasbag57
(g73
g59
NtRp1333
(dp1334
g62
(dp1335
sg71
g847
sg64
(lp1336
g57
(g78
g59
NtRp1337
(dp1338
g62
(dp1339
g82
g83
ssg71
g1333
sg64
(lp1340
S'request_uri'
p1341
asbag57
(g78
g59
NtRp1342
(dp1343
g62
(dp1344
g89
g90
ssg71
g1333
sg64
(lp1345
S':'
asbag57
(g78
g59
NtRp1346
(dp1347
g62
(dp1348
sg71
g1333
sg64
(lp1349
g57
(g58
g59
NtRp1350
(dp1351
g62
(dp1352
g70
I4
ssg71
g1346
sg64
(lp1353
g1246
asbasbasbag57
(g73
g59
NtRp1354
(dp1355
g62
(dp1356
sg71
g847
sg64
(lp1357
g57
(g78
g59
NtRp1358
(dp1359
g62
(dp1360
g82
g83
ssg71
g1354
sg64
(lp1361
S'script_name'
p1362
asbag57
(g78
g59
NtRp1363
(dp1364
g62
(dp1365
g89
g90
ssg71
g1354
sg64
(lp1366
S':'
asbag57
(g78
g59
NtRp1367
(dp1368
g62
(dp1369
sg71
g1354
sg64
(lp1370
g57
(g58
g59
NtRp1371
(dp1372
g62
(dp1373
g70
I4
ssg71
g1367
sg64
(lp1374
S''
asbasbasbag57
(g73
g59
NtRp1375
(dp1376
g62
(dp1377
sg71
g847
sg64
(lp1378
g57
(g78
g59
NtRp1379
(dp1380
g62
(dp1381
g82
g83
ssg71
g1375
sg64
(lp1382
S'server_name'
p1383
asbag57
(g78
g59
NtRp1384
(dp1385
g62
(dp1386
g89
g90
ssg71
g1375
sg64
(lp1387
S':'
asbag57
(g78
g59
NtRp1388
(dp1389
g62
(dp1390
sg71
g1375
sg64
(lp1391
g57
(g58
g59
NtRp1392
(dp1393
g62
(dp1394
g70
I4
ssg71
g1388
sg64
(lp1395
S'2daw1'
p1396
asbasbasbag57
(g73
g59
NtRp1397
(dp1398
g62
(dp1399
sg71
g847
sg64
(lp1400
g57
(g78
g59
NtRp1401
(dp1402
g62
(dp1403
g82
g83
ssg71
g1397
sg64
(lp1404
S'server_port'
p1405
asbag57
(g78
g59
NtRp1406
(dp1407
g62
(dp1408
g89
g90
ssg71
g1397
sg64
(lp1409
S':'
asbag57
(g78
g59
NtRp1410
(dp1411
g62
(dp1412
sg71
g1397
sg64
(lp1413
g57
(g58
g59
NtRp1414
(dp1415
g62
(dp1416
g70
I4
ssg71
g1410
sg64
(lp1417
S'8000'
p1418
asbasbasbag57
(g73
g59
NtRp1419
(dp1420
g62
(dp1421
sg71
g847
sg64
(lp1422
g57
(g78
g59
NtRp1423
(dp1424
g62
(dp1425
g82
g83
ssg71
g1419
sg64
(lp1426
S'server_protocol'
p1427
asbag57
(g78
g59
NtRp1428
(dp1429
g62
(dp1430
g89
g90
ssg71
g1419
sg64
(lp1431
S':'
asbag57
(g78
g59
NtRp1432
(dp1433
g62
(dp1434
sg71
g1419
sg64
(lp1435
g57
(g58
g59
NtRp1436
(dp1437
g62
(dp1438
g70
I4
ssg71
g1432
sg64
(lp1439
S'HTTP/1.1'
p1440
asbasbasbag57
(g73
g59
NtRp1441
(dp1442
g62
(dp1443
sg71
g847
sg64
(lp1444
g57
(g78
g59
NtRp1445
(dp1446
g62
(dp1447
g82
g83
ssg71
g1441
sg64
(lp1448
S'server_software'
p1449
asbag57
(g78
g59
NtRp1450
(dp1451
g62
(dp1452
g89
g90
ssg71
g1441
sg64
(lp1453
S':'
asbag57
(g78
g59
NtRp1454
(dp1455
g62
(dp1456
sg71
g1441
sg64
(lp1457
g57
(g58
g59
NtRp1458
(dp1459
g62
(dp1460
g70
I4
ssg71
g1454
sg64
(lp1461
S'Rocket 1.2.4'
p1462
asbasbasbag57
(g73
g59
NtRp1463
(dp1464
g62
(dp1465
sg71
g847
sg64
(lp1466
g57
(g78
g59
NtRp1467
(dp1468
g62
(dp1469
g82
g83
ssg71
g1463
sg64
(lp1470
S'web2py_crontype'
p1471
asbag57
(g78
g59
NtRp1472
(dp1473
g62
(dp1474
g89
g90
ssg71
g1463
sg64
(lp1475
S':'
asbag57
(g78
g59
NtRp1476
(dp1477
g62
(dp1478
sg71
g1463
sg64
(lp1479
g57
(g58
g59
NtRp1480
(dp1481
g62
(dp1482
g70
I4
ssg71
g1476
sg64
(lp1483
S'hard'
p1484
asbasbasbag57
(g73
g59
NtRp1485
(dp1486
g62
(dp1487
sg71
g847
sg64
(lp1488
g57
(g78
g59
NtRp1489
(dp1490
g62
(dp1491
g82
g83
ssg71
g1485
sg64
(lp1492
S'web2py_path'
p1493
asbag57
(g78
g59
NtRp1494
(dp1495
g62
(dp1496
g89
g90
ssg71
g1485
sg64
(lp1497
S':'
asbag57
(g78
g59
NtRp1498
(dp1499
g62
(dp1500
sg71
g1485
sg64
(lp1501
g57
(g58
g59
NtRp1502
(dp1503
g62
(dp1504
g70
I4
ssg71
g1498
sg64
(lp1505
g894
asbasbasbag57
(g73
g59
NtRp1506
(dp1507
g62
(dp1508
sg71
g847
sg64
(lp1509
g57
(g78
g59
NtRp1510
(dp1511
g62
(dp1512
g82
g83
ssg71
g1506
sg64
(lp1513
S'web2py_version'
p1514
asbag57
(g78
g59
NtRp1515
(dp1516
g62
(dp1517
g89
g90
ssg71
g1506
sg64
(lp1518
S':'
asbag57
(g78
g59
NtRp1519
(dp1520
g62
(dp1521
sg71
g1506
sg64
(lp1522
g57
(g58
g59
NtRp1523
(dp1524
g62
(dp1525
g70
I4
ssg71
g1519
sg64
(lp1526
g57
(g66
g59
NtRp1527
(dp1528
g62
(dp1529
g70
I3
ssg71
Nsg64
(lp1530
g57
(g73
g59
NtRp1531
(dp1532
g62
(dp1533
sg71
g1527
sg64
(lp1534
g57
(g78
g59
NtRp1535
(dp1536
g62
(dp1537
sg71
g1531
sg64
(lp1538
g57
(g58
g59
NtRp1539
(dp1540
g62
(dp1541
g70
I3
ssg71
g1535
sg64
(lp1542
S'2'
asbasbasbag57
(g73
g59
NtRp1543
(dp1544
g62
(dp1545
sg71
g1527
sg64
(lp1546
g57
(g78
g59
NtRp1547
(dp1548
g62
(dp1549
sg71
g1543
sg64
(lp1550
g57
(g58
g59
NtRp1551
(dp1552
g62
(dp1553
g70
I3
ssg71
g1547
sg64
(lp1554
S'0'
asbasbasbag57
(g73
g59
NtRp1555
(dp1556
g62
(dp1557
sg71
g1527
sg64
(lp1558
g57
(g78
g59
NtRp1559
(dp1560
g62
(dp1561
sg71
g1555
sg64
(lp1562
g57
(g58
g59
NtRp1563
(dp1564
g62
(dp1565
g70
I3
ssg71
g1559
sg64
(lp1566
S'9'
asbasbasbag57
(g73
g59
NtRp1567
(dp1568
g62
(dp1569
sg71
g1527
sg64
(lp1570
g57
(g78
g59
NtRp1571
(dp1572
g62
(dp1573
sg71
g1567
sg64
(lp1574
g57
(g58
g59
NtRp1575
(dp1576
g62
(dp1577
g70
I3
ssg71
g1571
sg64
(lp1578
S'datetime.datetime(2012, 9, 13, 23, 51, 30)'
p1579
asbasbasbag57
(g73
g59
NtRp1580
(dp1581
g62
(dp1582
sg71
g1527
sg64
(lp1583
g57
(g78
g59
NtRp1584
(dp1585
g62
(dp1586
sg71
g1580
sg64
(lp1587
g57
(g58
g59
NtRp1588
(dp1589
g62
(dp1590
g70
I3
ssg71
g1584
sg64
(lp1591
S'stable'
p1592
asbasbasbasbasbasbasbag57
(g73
g59
NtRp1593
(dp1594
g62
(dp1595
sg71
g847
sg64
(lp1596
g57
(g78
g59
NtRp1597
(dp1598
g62
(dp1599
g82
g83
ssg71
g1593
sg64
(lp1600
S'wsgi_errors'
p1601
asbag57
(g78
g59
NtRp1602
(dp1603
g62
(dp1604
g89
g90
ssg71
g1593
sg64
(lp1605
S':'
asbag57
(g78
g59
NtRp1606
(dp1607
g62
(dp1608
sg71
g1593
sg64
(lp1609
g57
(g58
g59
NtRp1610
(dp1611
g62
(dp1612
g70
I4
ssg71
g1606
sg64
(lp1613
S"<open file '<stderr>', mode 'w' at 0x7ff9dbde2270>"
p1614
asbasbasbag57
(g73
g59
NtRp1615
(dp1616
g62
(dp1617
sg71
g847
sg64
(lp1618
g57
(g78
g59
NtRp1619
(dp1620
g62
(dp1621
g82
g83
ssg71
g1615
sg64
(lp1622
S'wsgi_file_wrapper'
p1623
asbag57
(g78
g59
NtRp1624
(dp1625
g62
(dp1626
g89
g90
ssg71
g1615
sg64
(lp1627
S':'
asbag57
(g78
g59
NtRp1628
(dp1629
g62
(dp1630
sg71
g1615
sg64
(lp1631
g57
(g58
g59
NtRp1632
(dp1633
g62
(dp1634
g70
I4
ssg71
g1628
sg64
(lp1635
S'<class wsgiref.util.FileWrapper at 0x2a43a78>'
p1636
asbasbasbag57
(g73
g59
NtRp1637
(dp1638
g62
(dp1639
sg71
g847
sg64
(lp1640
g57
(g78
g59
NtRp1641
(dp1642
g62
(dp1643
g82
g83
ssg71
g1637
sg64
(lp1644
S'wsgi_input'
p1645
asbag57
(g78
g59
NtRp1646
(dp1647
g62
(dp1648
g89
g90
ssg71
g1637
sg64
(lp1649
S':'
asbag57
(g78
g59
NtRp1650
(dp1651
g62
(dp1652
sg71
g1637
sg64
(lp1653
g57
(g58
g59
NtRp1654
(dp1655
g62
(dp1656
g70
I4
ssg71
g1650
sg64
(lp1657
S'<socket._fileobject object at 0x7ff9b0317dd0>'
p1658
asbasbasbag57
(g73
g59
NtRp1659
(dp1660
g62
(dp1661
sg71
g847
sg64
(lp1662
g57
(g78
g59
NtRp1663
(dp1664
g62
(dp1665
g82
g83
ssg71
g1659
sg64
(lp1666
S'wsgi_multiprocess'
p1667
asbag57
(g78
g59
NtRp1668
(dp1669
g62
(dp1670
g89
g90
ssg71
g1659
sg64
(lp1671
S':'
asbag57
(g78
g59
NtRp1672
(dp1673
g62
(dp1674
sg71
g1659
sg64
(lp1675
g57
(g58
g59
NtRp1676
(dp1677
g62
(dp1678
g70
I4
ssg71
g1672
sg64
(lp1679
g100
asbasbasbag57
(g73
g59
NtRp1680
(dp1681
g62
(dp1682
sg71
g847
sg64
(lp1683
g57
(g78
g59
NtRp1684
(dp1685
g62
(dp1686
g82
g83
ssg71
g1680
sg64
(lp1687
S'wsgi_multithread'
p1688
asbag57
(g78
g59
NtRp1689
(dp1690
g62
(dp1691
g89
g90
ssg71
g1680
sg64
(lp1692
S':'
asbag57
(g78
g59
NtRp1693
(dp1694
g62
(dp1695
sg71
g1680
sg64
(lp1696
g57
(g58
g59
NtRp1697
(dp1698
g62
(dp1699
g70
I4
ssg71
g1693
sg64
(lp1700
S'True'
p1701
asbasbasbag57
(g73
g59
NtRp1702
(dp1703
g62
(dp1704
sg71
g847
sg64
(lp1705
g57
(g78
g59
NtRp1706
(dp1707
g62
(dp1708
g82
g83
ssg71
g1702
sg64
(lp1709
S'wsgi_run_once'
p1710
asbag57
(g78
g59
NtRp1711
(dp1712
g62
(dp1713
g89
g90
ssg71
g1702
sg64
(lp1714
S':'
asbag57
(g78
g59
NtRp1715
(dp1716
g62
(dp1717
sg71
g1702
sg64
(lp1718
g57
(g58
g59
NtRp1719
(dp1720
g62
(dp1721
g70
I4
ssg71
g1715
sg64
(lp1722
g100
asbasbasbag57
(g73
g59
NtRp1723
(dp1724
g62
(dp1725
sg71
g847
sg64
(lp1726
g57
(g78
g59
NtRp1727
(dp1728
g62
(dp1729
g82
g83
ssg71
g1723
sg64
(lp1730
S'wsgi_url_scheme'
p1731
asbag57
(g78
g59
NtRp1732
(dp1733
g62
(dp1734
g89
g90
ssg71
g1723
sg64
(lp1735
S':'
asbag57
(g78
g59
NtRp1736
(dp1737
g62
(dp1738
sg71
g1723
sg64
(lp1739
g57
(g58
g59
NtRp1740
(dp1741
g62
(dp1742
g70
I4
ssg71
g1736
sg64
(lp1743
S'http'
p1744
asbasbasbag57
(g73
g59
NtRp1745
(dp1746
g62
(dp1747
sg71
g847
sg64
(lp1748
g57
(g78
g59
NtRp1749
(dp1750
g62
(dp1751
g82
g83
ssg71
g1745
sg64
(lp1752
S'wsgi_version'
p1753
asbag57
(g78
g59
NtRp1754
(dp1755
g62
(dp1756
g89
g90
ssg71
g1745
sg64
(lp1757
S':'
asbag57
(g78
g59
NtRp1758
(dp1759
g62
(dp1760
sg71
g1745
sg64
(lp1761
g57
(g58
g59
NtRp1762
(dp1763
g62
(dp1764
g70
I4
ssg71
g1758
sg64
(lp1765
g57
(g66
g59
NtRp1766
(dp1767
g62
(dp1768
g70
I3
ssg71
Nsg64
(lp1769
g57
(g73
g59
NtRp1770
(dp1771
g62
(dp1772
sg71
g1766
sg64
(lp1773
g57
(g78
g59
NtRp1774
(dp1775
g62
(dp1776
sg71
g1770
sg64
(lp1777
g57
(g58
g59
NtRp1778
(dp1779
g62
(dp1780
g70
I3
ssg71
g1774
sg64
(lp1781
S'1'
asbasbasbag57
(g73
g59
NtRp1782
(dp1783
g62
(dp1784
sg71
g1766
sg64
(lp1785
g57
(g78
g59
NtRp1786
(dp1787
g62
(dp1788
sg71
g1782
sg64
(lp1789
g57
(g58
g59
NtRp1790
(dp1791
g62
(dp1792
g70
I3
ssg71
g1786
sg64
(lp1793
S'0'
asbasbasbasbasbasbasbasbasbasbasbag57
(g73
g59
NtRp1794
(dp1795
g62
(dp1796
sg71
g67
sg64
(lp1797
g57
(g78
g59
NtRp1798
(dp1799
g62
(dp1800
g82
g83
ssg71
g1794
sg64
(lp1801
S'extension'
p1802
asbag57
(g78
g59
NtRp1803
(dp1804
g62
(dp1805
g89
g90
ssg71
g1794
sg64
(lp1806
S':'
asbag57
(g78
g59
NtRp1807
(dp1808
g62
(dp1809
sg71
g1794
sg64
(lp1810
g57
(g58
g59
NtRp1811
(dp1812
g62
(dp1813
g70
I5
ssg71
g1807
sg64
(lp1814
S'html'
p1815
asbasbasbag57
(g73
g59
NtRp1816
(dp1817
g62
(dp1818
sg71
g67
sg64
(lp1819
g57
(g78
g59
NtRp1820
(dp1821
g62
(dp1822
g82
g83
ssg71
g1816
sg64
(lp1823
S'folder'
p1824
asbag57
(g78
g59
NtRp1825
(dp1826
g62
(dp1827
g89
g90
ssg71
g1816
sg64
(lp1828
S':'
asbag57
(g78
g59
NtRp1829
(dp1830
g62
(dp1831
sg71
g1816
sg64
(lp1832
g57
(g58
g59
NtRp1833
(dp1834
g62
(dp1835
g70
I5
ssg71
g1829
sg64
(lp1836
S'/home/alumno/Escritorio/web2py/applications/miFacebook/'
p1837
asbasbasbag57
(g73
g59
NtRp1838
(dp1839
g62
(dp1840
sg71
g67
sg64
(lp1841
g57
(g78
g59
NtRp1842
(dp1843
g62
(dp1844
g82
g83
ssg71
g1838
sg64
(lp1845
S'function'
p1846
asbag57
(g78
g59
NtRp1847
(dp1848
g62
(dp1849
g89
g90
ssg71
g1838
sg64
(lp1850
S':'
asbag57
(g78
g59
NtRp1851
(dp1852
g62
(dp1853
sg71
g1838
sg64
(lp1854
g57
(g58
g59
NtRp1855
(dp1856
g62
(dp1857
g70
I5
ssg71
g1851
sg64
(lp1858
S'wall'
p1859
asbasbasbag57
(g73
g59
NtRp1860
(dp1861
g62
(dp1862
sg71
g67
sg64
(lp1863
g57
(g78
g59
NtRp1864
(dp1865
g62
(dp1866
g82
g83
ssg71
g1860
sg64
(lp1867
S'get_vars'
p1868
asbag57
(g78
g59
NtRp1869
(dp1870
g62
(dp1871
g89
g90
ssg71
g1860
sg64
(lp1872
S':'
asbag57
(g78
g59
NtRp1873
(dp1874
g62
(dp1875
sg71
g1860
sg64
(lp1876
g57
(g58
g59
NtRp1877
(dp1878
g62
(dp1879
g70
I5
ssg71
g1873
sg64
(lp1880
g57
(g66
g59
NtRp1881
(dp1882
g62
(dp1883
g70
I4
ssg71
Nsg64
(lp1884
sbasbasbasbag57
(g73
g59
NtRp1885
(dp1886
g62
(dp1887
sg71
g67
sg64
(lp1888
g57
(g78
g59
NtRp1889
(dp1890
g62
(dp1891
g82
g83
ssg71
g1885
sg64
(lp1892
S'global_settings'
p1893
asbag57
(g78
g59
NtRp1894
(dp1895
g62
(dp1896
g89
g90
ssg71
g1885
sg64
(lp1897
S':'
asbag57
(g78
g59
NtRp1898
(dp1899
g62
(dp1900
sg71
g1885
sg64
(lp1901
g57
(g58
g59
NtRp1902
(dp1903
g62
(dp1904
g70
I5
ssg71
g1898
sg64
(lp1905
g57
(g66
g59
NtRp1906
(dp1907
g62
(dp1908
g70
I4
ssg71
Nsg64
(lp1909
g57
(g73
g59
NtRp1910
(dp1911
g62
(dp1912
sg71
g1906
sg64
(lp1913
g57
(g78
g59
NtRp1914
(dp1915
g62
(dp1916
g82
g83
ssg71
g1910
sg64
(lp1917
g859
asbag57
(g78
g59
NtRp1918
(dp1919
g62
(dp1920
g89
g90
ssg71
g1910
sg64
(lp1921
S':'
asbag57
(g78
g59
NtRp1922
(dp1923
g62
(dp1924
sg71
g1910
sg64
(lp1925
g57
(g58
g59
NtRp1926
(dp1927
g62
(dp1928
g70
I4
ssg71
g1922
sg64
(lp1929
S"set(['/home/alumno/Escritorio/web2py/applications/miFacebook/', '/home/alumno/Escritorio/web2py/applications/admin/', '/home/alumno/Escritorio/web2py/applications/welcome/'])"
p1930
asbasbasbag57
(g73
g59
NtRp1931
(dp1932
g62
(dp1933
sg71
g1906
sg64
(lp1934
g57
(g78
g59
NtRp1935
(dp1936
g62
(dp1937
g82
g83
ssg71
g1931
sg64
(lp1938
g881
asbag57
(g78
g59
NtRp1939
(dp1940
g62
(dp1941
g89
g90
ssg71
g1931
sg64
(lp1942
S':'
asbag57
(g78
g59
NtRp1943
(dp1944
g62
(dp1945
sg71
g1931
sg64
(lp1946
g57
(g58
g59
NtRp1947
(dp1948
g62
(dp1949
g70
I4
ssg71
g1943
sg64
(lp1950
g894
asbasbasbag57
(g73
g59
NtRp1951
(dp1952
g62
(dp1953
sg71
g1906
sg64
(lp1954
g57
(g78
g59
NtRp1955
(dp1956
g62
(dp1957
g82
g83
ssg71
g1951
sg64
(lp1958
g903
asbag57
(g78
g59
NtRp1959
(dp1960
g62
(dp1961
g89
g90
ssg71
g1951
sg64
(lp1962
S':'
asbag57
(g78
g59
NtRp1963
(dp1964
g62
(dp1965
sg71
g1951
sg64
(lp1966
g57
(g58
g59
NtRp1967
(dp1968
g62
(dp1969
g70
I4
ssg71
g1963
sg64
(lp1970
g57
(g66
g59
NtRp1971
(dp1972
g62
(dp1973
g70
I3
ssg71
Nsg64
(lp1974
sbasbasbasbag57
(g73
g59
NtRp1975
(dp1976
g62
(dp1977
sg71
g1906
sg64
(lp1978
g57
(g78
g59
NtRp1979
(dp1980
g62
(dp1981
g82
g83
ssg71
g1975
sg64
(lp1982
g928
asbag57
(g78
g59
NtRp1983
(dp1984
g62
(dp1985
g89
g90
ssg71
g1975
sg64
(lp1986
S':'
asbag57
(g78
g59
NtRp1987
(dp1988
g62
(dp1989
sg71
g1975
sg64
(lp1990
g57
(g58
g59
NtRp1991
(dp1992
g62
(dp1993
g70
I4
ssg71
g1987
sg64
(lp1994
S"<Values at 0x2ac59e0: {'verbose': False, 'ip': '127.0.0.1', 'with_scheduler': False, 'ips': ['127.0.1.1'], 'shutdown_timeout': 5, 'taskbar': False, 'port': 8000, 'maxthreads': None, 'softcron': False, 'server_name': '2daw1', 'bpython': False, 'nogui': False, 'nocron': False, 'extcron': False, 'run_system_tests': False, 'test': None, 'folder': '/home/alumno/Escritorio/web2py', 'config': '', 'import_models': False, 'winservice': '', 'shell': None, 'run': '', 'log_filename': 'httpserver.log', 'debuglevel': 30, 'args': [''], 'socket_timeout': 5, 'ssl_ca_certificate': None, 'scheduler': None, 'profiler_filename': None, 'ssl_private_key': '', 'scheduler_groups': None, 'password': '<ask>', 'request_queue_size': 5, 'ssl_certificate': '', 'cronjob': False, 'numthreads': None, 'quiet': False, 'interfaces': None, 'minthreads': None, 'timeout': 10, 'plain': False, 'nobanner': False, 'pid_filename': 'httpserver.pid'}>"
p1995
asbasbasbag57
(g73
g59
NtRp1996
(dp1997
g62
(dp1998
sg71
g1906
sg64
(lp1999
g57
(g78
g59
NtRp2000
(dp2001
g62
(dp2002
g82
g83
ssg71
g1996
sg64
(lp2003
g950
asbag57
(g78
g59
NtRp2004
(dp2005
g62
(dp2006
g89
g90
ssg71
g1996
sg64
(lp2007
S':'
asbag57
(g78
g59
NtRp2008
(dp2009
g62
(dp2010
sg71
g1996
sg64
(lp2011
g57
(g58
g59
NtRp2012
(dp2013
g62
(dp2014
g70
I4
ssg71
g2008
sg64
(lp2015
S'set([])'
p2016
asbasbasbag57
(g73
g59
NtRp2017
(dp2018
g62
(dp2019
sg71
g1906
sg64
(lp2020
g57
(g78
g59
NtRp2021
(dp2022
g62
(dp2023
g82
g83
ssg71
g2017
sg64
(lp2024
g972
asbag57
(g78
g59
NtRp2025
(dp2026
g62
(dp2027
g89
g90
ssg71
g2017
sg64
(lp2028
S':'
asbag57
(g78
g59
NtRp2029
(dp2030
g62
(dp2031
sg71
g2017
sg64
(lp2032
g57
(g58
g59
NtRp2033
(dp2034
g62
(dp2035
g70
I4
ssg71
g2029
sg64
(lp2036
g100
asbasbasbag57
(g73
g59
NtRp2037
(dp2038
g62
(dp2039
sg71
g1906
sg64
(lp2040
g57
(g78
g59
NtRp2041
(dp2042
g62
(dp2043
g82
g83
ssg71
g2037
sg64
(lp2044
g993
asbag57
(g78
g59
NtRp2045
(dp2046
g62
(dp2047
g89
g90
ssg71
g2037
sg64
(lp2048
S':'
asbag57
(g78
g59
NtRp2049
(dp2050
g62
(dp2051
sg71
g2037
sg64
(lp2052
g57
(g58
g59
NtRp2053
(dp2054
g62
(dp2055
g70
I4
ssg71
g2049
sg64
(lp2056
g1006
asbasbasbag57
(g73
g59
NtRp2057
(dp2058
g62
(dp2059
sg71
g1906
sg64
(lp2060
g57
(g78
g59
NtRp2061
(dp2062
g62
(dp2063
g82
g83
ssg71
g2057
sg64
(lp2064
g1191
asbag57
(g78
g59
NtRp2065
(dp2066
g62
(dp2067
g89
g90
ssg71
g2057
sg64
(lp2068
S':'
asbag57
(g78
g59
NtRp2069
(dp2070
g62
(dp2071
sg71
g2057
sg64
(lp2072
g57
(g58
g59
NtRp2073
(dp2074
g62
(dp2075
g70
I4
ssg71
g2069
sg64
(lp2076
g100
asbasbasbag57
(g73
g59
NtRp2077
(dp2078
g62
(dp2079
sg71
g1906
sg64
(lp2080
g57
(g78
g59
NtRp2081
(dp2082
g62
(dp2083
g82
g83
ssg71
g2077
sg64
(lp2084
g1212
asbag57
(g78
g59
NtRp2085
(dp2086
g62
(dp2087
g89
g90
ssg71
g2077
sg64
(lp2088
S':'
asbag57
(g78
g59
NtRp2089
(dp2090
g62
(dp2091
sg71
g2077
sg64
(lp2092
g57
(g58
g59
NtRp2093
(dp2094
g62
(dp2095
g70
I4
ssg71
g2089
sg64
(lp2096
g100
asbasbasbag57
(g73
g59
NtRp2097
(dp2098
g62
(dp2099
sg71
g1906
sg64
(lp2100
g57
(g78
g59
NtRp2101
(dp2102
g62
(dp2103
g82
g83
ssg71
g2097
sg64
(lp2104
g1471
asbag57
(g78
g59
NtRp2105
(dp2106
g62
(dp2107
g89
g90
ssg71
g2097
sg64
(lp2108
S':'
asbag57
(g78
g59
NtRp2109
(dp2110
g62
(dp2111
sg71
g2097
sg64
(lp2112
g57
(g58
g59
NtRp2113
(dp2114
g62
(dp2115
g70
I4
ssg71
g2109
sg64
(lp2116
g1484
asbasbasbag57
(g73
g59
NtRp2117
(dp2118
g62
(dp2119
sg71
g1906
sg64
(lp2120
g57
(g78
g59
NtRp2121
(dp2122
g62
(dp2123
g82
g83
ssg71
g2117
sg64
(lp2124
g1514
asbag57
(g78
g59
NtRp2125
(dp2126
g62
(dp2127
g89
g90
ssg71
g2117
sg64
(lp2128
S':'
asbag57
(g78
g59
NtRp2129
(dp2130
g62
(dp2131
sg71
g2117
sg64
(lp2132
g57
(g58
g59
NtRp2133
(dp2134
g62
(dp2135
g70
I4
ssg71
g2129
sg64
(lp2136
g57
(g66
g59
NtRp2137
(dp2138
g62
(dp2139
g70
I3
ssg71
Nsg64
(lp2140
g57
(g73
g59
NtRp2141
(dp2142
g62
(dp2143
sg71
g2137
sg64
(lp2144
g57
(g78
g59
NtRp2145
(dp2146
g62
(dp2147
sg71
g2141
sg64
(lp2148
g57
(g58
g59
NtRp2149
(dp2150
g62
(dp2151
g70
I3
ssg71
g2145
sg64
(lp2152
S'2'
asbasbasbag57
(g73
g59
NtRp2153
(dp2154
g62
(dp2155
sg71
g2137
sg64
(lp2156
g57
(g78
g59
NtRp2157
(dp2158
g62
(dp2159
sg71
g2153
sg64
(lp2160
g57
(g58
g59
NtRp2161
(dp2162
g62
(dp2163
g70
I3
ssg71
g2157
sg64
(lp2164
S'0'
asbasbasbag57
(g73
g59
NtRp2165
(dp2166
g62
(dp2167
sg71
g2137
sg64
(lp2168
g57
(g78
g59
NtRp2169
(dp2170
g62
(dp2171
sg71
g2165
sg64
(lp2172
g57
(g58
g59
NtRp2173
(dp2174
g62
(dp2175
g70
I3
ssg71
g2169
sg64
(lp2176
S'9'
asbasbasbag57
(g73
g59
NtRp2177
(dp2178
g62
(dp2179
sg71
g2137
sg64
(lp2180
g57
(g78
g59
NtRp2181
(dp2182
g62
(dp2183
sg71
g2177
sg64
(lp2184
g57
(g58
g59
NtRp2185
(dp2186
g62
(dp2187
g70
I3
ssg71
g2181
sg64
(lp2188
S'datetime.datetime(2012, 9, 13, 23, 51, 30)'
p2189
asbasbasbag57
(g73
g59
NtRp2190
(dp2191
g62
(dp2192
sg71
g2137
sg64
(lp2193
g57
(g78
g59
NtRp2194
(dp2195
g62
(dp2196
sg71
g2190
sg64
(lp2197
g57
(g58
g59
NtRp2198
(dp2199
g62
(dp2200
g70
I3
ssg71
g2194
sg64
(lp2201
g1592
asbasbasbasbasbasbasbasbasbasbasbag57
(g73
g59
NtRp2202
(dp2203
g62
(dp2204
sg71
g67
sg64
(lp2205
g57
(g78
g59
NtRp2206
(dp2207
g62
(dp2208
g82
g83
ssg71
g2202
sg64
(lp2209
S'is_https'
p2210
asbag57
(g78
g59
NtRp2211
(dp2212
g62
(dp2213
g89
g90
ssg71
g2202
sg64
(lp2214
S':'
asbag57
(g78
g59
NtRp2215
(dp2216
g62
(dp2217
sg71
g2202
sg64
(lp2218
g57
(g58
g59
NtRp2219
(dp2220
g62
(dp2221
g70
I5
ssg71
g2215
sg64
(lp2222
g100
asbasbasbag57
(g73
g59
NtRp2223
(dp2224
g62
(dp2225
sg71
g67
sg64
(lp2226
g57
(g78
g59
NtRp2227
(dp2228
g62
(dp2229
g82
g83
ssg71
g2223
sg64
(lp2230
S'is_local'
p2231
asbag57
(g78
g59
NtRp2232
(dp2233
g62
(dp2234
g89
g90
ssg71
g2223
sg64
(lp2235
S':'
asbag57
(g78
g59
NtRp2236
(dp2237
g62
(dp2238
sg71
g2223
sg64
(lp2239
g57
(g58
g59
NtRp2240
(dp2241
g62
(dp2242
g70
I5
ssg71
g2236
sg64
(lp2243
g1701
asbasbasbag57
(g73
g59
NtRp2244
(dp2245
g62
(dp2246
sg71
g67
sg64
(lp2247
g57
(g78
g59
NtRp2248
(dp2249
g62
(dp2250
g82
g83
ssg71
g2244
sg64
(lp2251
S'is_restful'
p2252
asbag57
(g78
g59
NtRp2253
(dp2254
g62
(dp2255
g89
g90
ssg71
g2244
sg64
(lp2256
S':'
asbag57
(g78
g59
NtRp2257
(dp2258
g62
(dp2259
sg71
g2244
sg64
(lp2260
g57
(g58
g59
NtRp2261
(dp2262
g62
(dp2263
g70
I5
ssg71
g2257
sg64
(lp2264
g100
asbasbasbag57
(g73
g59
NtRp2265
(dp2266
g62
(dp2267
sg71
g67
sg64
(lp2268
g57
(g78
g59
NtRp2269
(dp2270
g62
(dp2271
g82
g83
ssg71
g2265
sg64
(lp2272
S'now'
p2273
asbag57
(g78
g59
NtRp2274
(dp2275
g62
(dp2276
g89
g90
ssg71
g2265
sg64
(lp2277
S':'
asbag57
(g78
g59
NtRp2278
(dp2279
g62
(dp2280
sg71
g2265
sg64
(lp2281
g57
(g58
g59
NtRp2282
(dp2283
g62
(dp2284
g70
I5
ssg71
g2278
sg64
(lp2285
S'datetime.datetime(2012, 10, 16, 13, 14, 10, 855947)'
p2286
asbasbasbag57
(g73
g59
NtRp2287
(dp2288
g62
(dp2289
sg71
g67
sg64
(lp2290
g57
(g78
g59
NtRp2291
(dp2292
g62
(dp2293
g82
g83
ssg71
g2287
sg64
(lp2294
S'post_vars'
p2295
asbag57
(g78
g59
NtRp2296
(dp2297
g62
(dp2298
g89
g90
ssg71
g2287
sg64
(lp2299
S':'
asbag57
(g78
g59
NtRp2300
(dp2301
g62
(dp2302
sg71
g2287
sg64
(lp2303
g57
(g58
g59
NtRp2304
(dp2305
g62
(dp2306
g70
I5
ssg71
g2300
sg64
(lp2307
g57
(g66
g59
NtRp2308
(dp2309
g62
(dp2310
g70
I4
ssg71
Nsg64
(lp2311
sbasbasbasbag57
(g73
g59
NtRp2312
(dp2313
g62
(dp2314
sg71
g67
sg64
(lp2315
g57
(g78
g59
NtRp2316
(dp2317
g62
(dp2318
g82
g83
ssg71
g2312
sg64
(lp2319
S'raw_args'
p2320
asbag57
(g78
g59
NtRp2321
(dp2322
g62
(dp2323
g89
g90
ssg71
g2312
sg64
(lp2324
S':'
asbag57
(g78
g59
NtRp2325
(dp2326
g62
(dp2327
sg71
g2312
sg64
(lp2328
g57
(g58
g59
NtRp2329
(dp2330
g62
(dp2331
g70
I5
ssg71
g2325
sg64
(lp2332
S'None'
p2333
asbasbasbag57
(g73
g59
NtRp2334
(dp2335
g62
(dp2336
sg71
g67
sg64
(lp2337
g57
(g78
g59
NtRp2338
(dp2339
g62
(dp2340
g82
g83
ssg71
g2334
sg64
(lp2341
S'raw_extension'
p2342
asbag57
(g78
g59
NtRp2343
(dp2344
g62
(dp2345
g89
g90
ssg71
g2334
sg64
(lp2346
S':'
asbag57
(g78
g59
NtRp2347
(dp2348
g62
(dp2349
sg71
g2334
sg64
(lp2350
g57
(g58
g59
NtRp2351
(dp2352
g62
(dp2353
g70
I5
ssg71
g2347
sg64
(lp2354
S'None'
p2355
asbasbasbag57
(g73
g59
NtRp2356
(dp2357
g62
(dp2358
sg71
g67
sg64
(lp2359
g57
(g78
g59
NtRp2360
(dp2361
g62
(dp2362
g82
g83
ssg71
g2356
sg64
(lp2363
S'url'
p2364
asbag57
(g78
g59
NtRp2365
(dp2366
g62
(dp2367
g89
g90
ssg71
g2356
sg64
(lp2368
S':'
asbag57
(g78
g59
NtRp2369
(dp2370
g62
(dp2371
sg71
g2356
sg64
(lp2372
g57
(g58
g59
NtRp2373
(dp2374
g62
(dp2375
g70
I5
ssg71
g2369
sg64
(lp2376
g1246
asbasbasbag57
(g73
g59
NtRp2377
(dp2378
g62
(dp2379
sg71
g67
sg64
(lp2380
g57
(g78
g59
NtRp2381
(dp2382
g62
(dp2383
g82
g83
ssg71
g2377
sg64
(lp2384
S'utcnow'
p2385
asbag57
(g78
g59
NtRp2386
(dp2387
g62
(dp2388
g89
g90
ssg71
g2377
sg64
(lp2389
S':'
asbag57
(g78
g59
NtRp2390
(dp2391
g62
(dp2392
sg71
g2377
sg64
(lp2393
g57
(g58
g59
NtRp2394
(dp2395
g62
(dp2396
g70
I5
ssg71
g2390
sg64
(lp2397
S'datetime.datetime(2012, 10, 16, 11, 14, 10, 856000)'
p2398
asbasbasbag57
(g73
g59
NtRp2399
(dp2400
g62
(dp2401
sg71
g67
sg64
(lp2402
g57
(g78
g59
NtRp2403
(dp2404
g62
(dp2405
g82
g83
ssg71
g2399
sg64
(lp2406
S'uuid'
p2407
asbag57
(g78
g59
NtRp2408
(dp2409
g62
(dp2410
g89
g90
ssg71
g2399
sg64
(lp2411
S':'
asbag57
(g78
g59
NtRp2412
(dp2413
g62
(dp2414
sg71
g2399
sg64
(lp2415
g57
(g58
g59
NtRp2416
(dp2417
g62
(dp2418
g70
I5
ssg71
g2412
sg64
(lp2419
S'miFacebook/127.0.0.1.2012-10-16.13-14-10.e8dd789c-4fe2-4b9e-9e2f-aa73f8d4ff75'
p2420
asbasbasbag57
(g73
g59
NtRp2421
(dp2422
g62
(dp2423
sg71
g67
sg64
(lp2424
g57
(g78
g59
NtRp2425
(dp2426
g62
(dp2427
g82
g83
ssg71
g2421
sg64
(lp2428
S'vars'
p2429
asbag57
(g78
g59
NtRp2430
(dp2431
g62
(dp2432
g89
g90
ssg71
g2421
sg64
(lp2433
S':'
asbag57
(g78
g59
NtRp2434
(dp2435
g62
(dp2436
sg71
g2421
sg64
(lp2437
g57
(g58
g59
NtRp2438
(dp2439
g62
(dp2440
g70
I5
ssg71
g2434
sg64
(lp2441
g57
(g66
g59
NtRp2442
(dp2443
g62
(dp2444
g70
I4
ssg71
Nsg64
(lp2445
sbasbasbasbag57
(g73
g59
NtRp2446
(dp2447
g62
(dp2448
sg71
g67
sg64
(lp2449
g57
(g78
g59
NtRp2450
(dp2451
g62
(dp2452
g82
g83
ssg71
g2446
sg64
(lp2453
S'wsgi'
p2454
asbag57
(g78
g59
NtRp2455
(dp2456
g62
(dp2457
g89
g90
ssg71
g2446
sg64
(lp2458
S':'
asbag57
(g78
g59
NtRp2459
(dp2460
g62
(dp2461
sg71
g2446
sg64
(lp2462
g57
(g58
g59
NtRp2463
(dp2464
g62
(dp2465
g70
I5
ssg71
g2459
sg64
(lp2466
g57
(g66
g59
NtRp2467
(dp2468
g62
(dp2469
g70
I4
ssg71
Nsg64
(lp2470
g57
(g73
g59
NtRp2471
(dp2472
g62
(dp2473
sg71
g2467
sg64
(lp2474
g57
(g78
g59
NtRp2475
(dp2476
g62
(dp2477
g82
g83
ssg71
g2471
sg64
(lp2478
S'environ'
p2479
asbag57
(g78
g59
NtRp2480
(dp2481
g62
(dp2482
g89
g90
ssg71
g2471
sg64
(lp2483
S':'
asbag57
(g78
g59
NtRp2484
(dp2485
g62
(dp2486
sg71
g2471
sg64
(lp2487
g57
(g58
g59
NtRp2488
(dp2489
g62
(dp2490
g70
I4
ssg71
g2484
sg64
(lp2491
g57
(g66
g59
NtRp2492
(dp2493
g62
(dp2494
g70
I3
ssg71
Nsg64
(lp2495
g57
(g73
g59
NtRp2496
(dp2497
g62
(dp2498
sg71
g2492
sg64
(lp2499
g57
(g78
g59
NtRp2500
(dp2501
g62
(dp2502
g82
g83
ssg71
g2496
sg64
(lp2503
S'HTTP_ACCEPT'
p2504
asbag57
(g78
g59
NtRp2505
(dp2506
g62
(dp2507
g89
g90
ssg71
g2496
sg64
(lp2508
S':'
asbag57
(g78
g59
NtRp2509
(dp2510
g62
(dp2511
sg71
g2496
sg64
(lp2512
g57
(g58
g59
NtRp2513
(dp2514
g62
(dp2515
g70
I3
ssg71
g2509
sg64
(lp2516
g1028
asbasbasbag57
(g73
g59
NtRp2517
(dp2518
g62
(dp2519
sg71
g2492
sg64
(lp2520
g57
(g78
g59
NtRp2521
(dp2522
g62
(dp2523
g82
g83
ssg71
g2517
sg64
(lp2524
S'HTTP_ACCEPT_ENCODING'
p2525
asbag57
(g78
g59
NtRp2526
(dp2527
g62
(dp2528
g89
g90
ssg71
g2517
sg64
(lp2529
S':'
asbag57
(g78
g59
NtRp2530
(dp2531
g62
(dp2532
sg71
g2517
sg64
(lp2533
g57
(g58
g59
NtRp2534
(dp2535
g62
(dp2536
g70
I3
ssg71
g2530
sg64
(lp2537
g1050
asbasbasbag57
(g73
g59
NtRp2538
(dp2539
g62
(dp2540
sg71
g2492
sg64
(lp2541
g57
(g78
g59
NtRp2542
(dp2543
g62
(dp2544
g82
g83
ssg71
g2538
sg64
(lp2545
S'HTTP_ACCEPT_LANGUAGE'
p2546
asbag57
(g78
g59
NtRp2547
(dp2548
g62
(dp2549
g89
g90
ssg71
g2538
sg64
(lp2550
S':'
asbag57
(g78
g59
NtRp2551
(dp2552
g62
(dp2553
sg71
g2538
sg64
(lp2554
g57
(g58
g59
NtRp2555
(dp2556
g62
(dp2557
g70
I3
ssg71
g2551
sg64
(lp2558
g1072
asbasbasbag57
(g73
g59
NtRp2559
(dp2560
g62
(dp2561
sg71
g2492
sg64
(lp2562
g57
(g78
g59
NtRp2563
(dp2564
g62
(dp2565
g82
g83
ssg71
g2559
sg64
(lp2566
S'HTTP_CACHE_CONTROL'
p2567
asbag57
(g78
g59
NtRp2568
(dp2569
g62
(dp2570
g89
g90
ssg71
g2559
sg64
(lp2571
S':'
asbag57
(g78
g59
NtRp2572
(dp2573
g62
(dp2574
sg71
g2559
sg64
(lp2575
g57
(g58
g59
NtRp2576
(dp2577
g62
(dp2578
g70
I3
ssg71
g2572
sg64
(lp2579
g1094
asbasbasbag57
(g73
g59
NtRp2580
(dp2581
g62
(dp2582
sg71
g2492
sg64
(lp2583
g57
(g78
g59
NtRp2584
(dp2585
g62
(dp2586
g82
g83
ssg71
g2580
sg64
(lp2587
S'HTTP_CONNECTION'
p2588
asbag57
(g78
g59
NtRp2589
(dp2590
g62
(dp2591
g89
g90
ssg71
g2580
sg64
(lp2592
S':'
asbag57
(g78
g59
NtRp2593
(dp2594
g62
(dp2595
sg71
g2580
sg64
(lp2596
g57
(g58
g59
NtRp2597
(dp2598
g62
(dp2599
g70
I3
ssg71
g2593
sg64
(lp2600
g1116
asbasbasbag57
(g73
g59
NtRp2601
(dp2602
g62
(dp2603
sg71
g2492
sg64
(lp2604
g57
(g78
g59
NtRp2605
(dp2606
g62
(dp2607
g82
g83
ssg71
g2601
sg64
(lp2608
S'HTTP_COOKIE'
p2609
asbag57
(g78
g59
NtRp2610
(dp2611
g62
(dp2612
g89
g90
ssg71
g2601
sg64
(lp2613
S':'
asbag57
(g78
g59
NtRp2614
(dp2615
g62
(dp2616
sg71
g2601
sg64
(lp2617
g57
(g58
g59
NtRp2618
(dp2619
g62
(dp2620
g70
I3
ssg71
g2614
sg64
(lp2621
g1138
asbasbasbag57
(g73
g59
NtRp2622
(dp2623
g62
(dp2624
sg71
g2492
sg64
(lp2625
g57
(g78
g59
NtRp2626
(dp2627
g62
(dp2628
g82
g83
ssg71
g2622
sg64
(lp2629
S'HTTP_HOST'
p2630
asbag57
(g78
g59
NtRp2631
(dp2632
g62
(dp2633
g89
g90
ssg71
g2622
sg64
(lp2634
S':'
asbag57
(g78
g59
NtRp2635
(dp2636
g62
(dp2637
sg71
g2622
sg64
(lp2638
g57
(g58
g59
NtRp2639
(dp2640
g62
(dp2641
g70
I3
ssg71
g2635
sg64
(lp2642
g1160
asbasbasbag57
(g73
g59
NtRp2643
(dp2644
g62
(dp2645
sg71
g2492
sg64
(lp2646
g57
(g78
g59
NtRp2647
(dp2648
g62
(dp2649
g82
g83
ssg71
g2643
sg64
(lp2650
S'HTTP_USER_AGENT'
p2651
asbag57
(g78
g59
NtRp2652
(dp2653
g62
(dp2654
g89
g90
ssg71
g2643
sg64
(lp2655
S':'
asbag57
(g78
g59
NtRp2656
(dp2657
g62
(dp2658
sg71
g2643
sg64
(lp2659
g57
(g58
g59
NtRp2660
(dp2661
g62
(dp2662
g70
I3
ssg71
g2656
sg64
(lp2663
g1182
asbasbasbag57
(g73
g59
NtRp2664
(dp2665
g62
(dp2666
sg71
g2492
sg64
(lp2667
g57
(g78
g59
NtRp2668
(dp2669
g62
(dp2670
g82
g83
ssg71
g2664
sg64
(lp2671
S'PATH_INFO'
p2672
asbag57
(g78
g59
NtRp2673
(dp2674
g62
(dp2675
g89
g90
ssg71
g2664
sg64
(lp2676
S':'
asbag57
(g78
g59
NtRp2677
(dp2678
g62
(dp2679
sg71
g2664
sg64
(lp2680
g57
(g58
g59
NtRp2681
(dp2682
g62
(dp2683
g70
I3
ssg71
g2677
sg64
(lp2684
g1246
asbasbasbag57
(g73
g59
NtRp2685
(dp2686
g62
(dp2687
sg71
g2492
sg64
(lp2688
g57
(g78
g59
NtRp2689
(dp2690
g62
(dp2691
g82
g83
ssg71
g2685
sg64
(lp2692
S'QUERY_STRING'
p2693
asbag57
(g78
g59
NtRp2694
(dp2695
g62
(dp2696
g89
g90
ssg71
g2685
sg64
(lp2697
S':'
asbag57
(g78
g59
NtRp2698
(dp2699
g62
(dp2700
sg71
g2685
sg64
(lp2701
g57
(g58
g59
NtRp2702
(dp2703
g62
(dp2704
g70
I3
ssg71
g2698
sg64
(lp2705
S''
asbasbasbag57
(g73
g59
NtRp2706
(dp2707
g62
(dp2708
sg71
g2492
sg64
(lp2709
g57
(g78
g59
NtRp2710
(dp2711
g62
(dp2712
g82
g83
ssg71
g2706
sg64
(lp2713
S'REMOTE_ADDR'
p2714
asbag57
(g78
g59
NtRp2715
(dp2716
g62
(dp2717
g89
g90
ssg71
g2706
sg64
(lp2718
S':'
asbag57
(g78
g59
NtRp2719
(dp2720
g62
(dp2721
sg71
g2706
sg64
(lp2722
g57
(g58
g59
NtRp2723
(dp2724
g62
(dp2725
g70
I3
ssg71
g2719
sg64
(lp2726
g212
asbasbasbag57
(g73
g59
NtRp2727
(dp2728
g62
(dp2729
sg71
g2492
sg64
(lp2730
g57
(g78
g59
NtRp2731
(dp2732
g62
(dp2733
g82
g83
ssg71
g2727
sg64
(lp2734
S'REMOTE_PORT'
p2735
asbag57
(g78
g59
NtRp2736
(dp2737
g62
(dp2738
g89
g90
ssg71
g2727
sg64
(lp2739
S':'
asbag57
(g78
g59
NtRp2740
(dp2741
g62
(dp2742
sg71
g2727
sg64
(lp2743
g57
(g58
g59
NtRp2744
(dp2745
g62
(dp2746
g70
I3
ssg71
g2740
sg64
(lp2747
g1310
asbasbasbag57
(g73
g59
NtRp2748
(dp2749
g62
(dp2750
sg71
g2492
sg64
(lp2751
g57
(g78
g59
NtRp2752
(dp2753
g62
(dp2754
g82
g83
ssg71
g2748
sg64
(lp2755
S'REQUEST_METHOD'
p2756
asbag57
(g78
g59
NtRp2757
(dp2758
g62
(dp2759
g89
g90
ssg71
g2748
sg64
(lp2760
S':'
asbag57
(g78
g59
NtRp2761
(dp2762
g62
(dp2763
sg71
g2748
sg64
(lp2764
g57
(g58
g59
NtRp2765
(dp2766
g62
(dp2767
g70
I3
ssg71
g2761
sg64
(lp2768
g1332
asbasbasbag57
(g73
g59
NtRp2769
(dp2770
g62
(dp2771
sg71
g2492
sg64
(lp2772
g57
(g78
g59
NtRp2773
(dp2774
g62
(dp2775
g82
g83
ssg71
g2769
sg64
(lp2776
S'REQUEST_URI'
p2777
asbag57
(g78
g59
NtRp2778
(dp2779
g62
(dp2780
g89
g90
ssg71
g2769
sg64
(lp2781
S':'
asbag57
(g78
g59
NtRp2782
(dp2783
g62
(dp2784
sg71
g2769
sg64
(lp2785
g57
(g58
g59
NtRp2786
(dp2787
g62
(dp2788
g70
I3
ssg71
g2782
sg64
(lp2789
g1246
asbasbasbag57
(g73
g59
NtRp2790
(dp2791
g62
(dp2792
sg71
g2492
sg64
(lp2793
g57
(g78
g59
NtRp2794
(dp2795
g62
(dp2796
g82
g83
ssg71
g2790
sg64
(lp2797
S'SCRIPT_NAME'
p2798
asbag57
(g78
g59
NtRp2799
(dp2800
g62
(dp2801
g89
g90
ssg71
g2790
sg64
(lp2802
S':'
asbag57
(g78
g59
NtRp2803
(dp2804
g62
(dp2805
sg71
g2790
sg64
(lp2806
g57
(g58
g59
NtRp2807
(dp2808
g62
(dp2809
g70
I3
ssg71
g2803
sg64
(lp2810
S''
asbasbasbag57
(g73
g59
NtRp2811
(dp2812
g62
(dp2813
sg71
g2492
sg64
(lp2814
g57
(g78
g59
NtRp2815
(dp2816
g62
(dp2817
g82
g83
ssg71
g2811
sg64
(lp2818
S'SERVER_NAME'
p2819
asbag57
(g78
g59
NtRp2820
(dp2821
g62
(dp2822
g89
g90
ssg71
g2811
sg64
(lp2823
S':'
asbag57
(g78
g59
NtRp2824
(dp2825
g62
(dp2826
sg71
g2811
sg64
(lp2827
g57
(g58
g59
NtRp2828
(dp2829
g62
(dp2830
g70
I3
ssg71
g2824
sg64
(lp2831
g1396
asbasbasbag57
(g73
g59
NtRp2832
(dp2833
g62
(dp2834
sg71
g2492
sg64
(lp2835
g57
(g78
g59
NtRp2836
(dp2837
g62
(dp2838
g82
g83
ssg71
g2832
sg64
(lp2839
S'SERVER_PORT'
p2840
asbag57
(g78
g59
NtRp2841
(dp2842
g62
(dp2843
g89
g90
ssg71
g2832
sg64
(lp2844
S':'
asbag57
(g78
g59
NtRp2845
(dp2846
g62
(dp2847
sg71
g2832
sg64
(lp2848
g57
(g58
g59
NtRp2849
(dp2850
g62
(dp2851
g70
I3
ssg71
g2845
sg64
(lp2852
g1418
asbasbasbag57
(g73
g59
NtRp2853
(dp2854
g62
(dp2855
sg71
g2492
sg64
(lp2856
g57
(g78
g59
NtRp2857
(dp2858
g62
(dp2859
g82
g83
ssg71
g2853
sg64
(lp2860
S'SERVER_PROTOCOL'
p2861
asbag57
(g78
g59
NtRp2862
(dp2863
g62
(dp2864
g89
g90
ssg71
g2853
sg64
(lp2865
S':'
asbag57
(g78
g59
NtRp2866
(dp2867
g62
(dp2868
sg71
g2853
sg64
(lp2869
g57
(g58
g59
NtRp2870
(dp2871
g62
(dp2872
g70
I3
ssg71
g2866
sg64
(lp2873
g1440
asbasbasbag57
(g73
g59
NtRp2874
(dp2875
g62
(dp2876
sg71
g2492
sg64
(lp2877
g57
(g78
g59
NtRp2878
(dp2879
g62
(dp2880
g82
g83
ssg71
g2874
sg64
(lp2881
S'SERVER_SOFTWARE'
p2882
asbag57
(g78
g59
NtRp2883
(dp2884
g62
(dp2885
g89
g90
ssg71
g2874
sg64
(lp2886
S':'
asbag57
(g78
g59
NtRp2887
(dp2888
g62
(dp2889
sg71
g2874
sg64
(lp2890
g57
(g58
g59
NtRp2891
(dp2892
g62
(dp2893
g70
I3
ssg71
g2887
sg64
(lp2894
g1462
asbasbasbag57
(g73
g59
NtRp2895
(dp2896
g62
(dp2897
sg71
g2492
sg64
(lp2898
g57
(g78
g59
NtRp2899
(dp2900
g62
(dp2901
g82
g83
ssg71
g2895
sg64
(lp2902
S'wsgi.errors'
p2903
asbag57
(g78
g59
NtRp2904
(dp2905
g62
(dp2906
g89
g90
ssg71
g2895
sg64
(lp2907
S':'
asbag57
(g78
g59
NtRp2908
(dp2909
g62
(dp2910
sg71
g2895
sg64
(lp2911
g57
(g58
g59
NtRp2912
(dp2913
g62
(dp2914
g70
I3
ssg71
g2908
sg64
(lp2915
S"<open file '<stderr>', mode 'w' at 0x7ff9dbde2270>"
p2916
asbasbasbag57
(g73
g59
NtRp2917
(dp2918
g62
(dp2919
sg71
g2492
sg64
(lp2920
g57
(g78
g59
NtRp2921
(dp2922
g62
(dp2923
g82
g83
ssg71
g2917
sg64
(lp2924
S'wsgi.file_wrapper'
p2925
asbag57
(g78
g59
NtRp2926
(dp2927
g62
(dp2928
g89
g90
ssg71
g2917
sg64
(lp2929
S':'
asbag57
(g78
g59
NtRp2930
(dp2931
g62
(dp2932
sg71
g2917
sg64
(lp2933
g57
(g58
g59
NtRp2934
(dp2935
g62
(dp2936
g70
I3
ssg71
g2930
sg64
(lp2937
S'<class wsgiref.util.FileWrapper at 0x2a43a78>'
p2938
asbasbasbag57
(g73
g59
NtRp2939
(dp2940
g62
(dp2941
sg71
g2492
sg64
(lp2942
g57
(g78
g59
NtRp2943
(dp2944
g62
(dp2945
g82
g83
ssg71
g2939
sg64
(lp2946
S'wsgi.input'
p2947
asbag57
(g78
g59
NtRp2948
(dp2949
g62
(dp2950
g89
g90
ssg71
g2939
sg64
(lp2951
S':'
asbag57
(g78
g59
NtRp2952
(dp2953
g62
(dp2954
sg71
g2939
sg64
(lp2955
g57
(g58
g59
NtRp2956
(dp2957
g62
(dp2958
g70
I3
ssg71
g2952
sg64
(lp2959
S'<cStringIO.StringO object at 0x7ff99869c3e8>'
p2960
asbasbasbag57
(g73
g59
NtRp2961
(dp2962
g62
(dp2963
sg71
g2492
sg64
(lp2964
g57
(g78
g59
NtRp2965
(dp2966
g62
(dp2967
g82
g83
ssg71
g2961
sg64
(lp2968
S'wsgi.multiprocess'
p2969
asbag57
(g78
g59
NtRp2970
(dp2971
g62
(dp2972
g89
g90
ssg71
g2961
sg64
(lp2973
S':'
asbag57
(g78
g59
NtRp2974
(dp2975
g62
(dp2976
sg71
g2961
sg64
(lp2977
g57
(g58
g59
NtRp2978
(dp2979
g62
(dp2980
g70
I3
ssg71
g2974
sg64
(lp2981
g100
asbasbasbag57
(g73
g59
NtRp2982
(dp2983
g62
(dp2984
sg71
g2492
sg64
(lp2985
g57
(g78
g59
NtRp2986
(dp2987
g62
(dp2988
g82
g83
ssg71
g2982
sg64
(lp2989
S'wsgi.multithread'
p2990
asbag57
(g78
g59
NtRp2991
(dp2992
g62
(dp2993
g89
g90
ssg71
g2982
sg64
(lp2994
S':'
asbag57
(g78
g59
NtRp2995
(dp2996
g62
(dp2997
sg71
g2982
sg64
(lp2998
g57
(g58
g59
NtRp2999
(dp3000
g62
(dp3001
g70
I3
ssg71
g2995
sg64
(lp3002
g1701
asbasbasbag57
(g73
g59
NtRp3003
(dp3004
g62
(dp3005
sg71
g2492
sg64
(lp3006
g57
(g78
g59
NtRp3007
(dp3008
g62
(dp3009
g82
g83
ssg71
g3003
sg64
(lp3010
S'wsgi.run_once'
p3011
asbag57
(g78
g59
NtRp3012
(dp3013
g62
(dp3014
g89
g90
ssg71
g3003
sg64
(lp3015
S':'
asbag57
(g78
g59
NtRp3016
(dp3017
g62
(dp3018
sg71
g3003
sg64
(lp3019
g57
(g58
g59
NtRp3020
(dp3021
g62
(dp3022
g70
I3
ssg71
g3016
sg64
(lp3023
g100
asbasbasbag57
(g73
g59
NtRp3024
(dp3025
g62
(dp3026
sg71
g2492
sg64
(lp3027
g57
(g78
g59
NtRp3028
(dp3029
g62
(dp3030
g82
g83
ssg71
g3024
sg64
(lp3031
S'wsgi.url_scheme'
p3032
asbag57
(g78
g59
NtRp3033
(dp3034
g62
(dp3035
g89
g90
ssg71
g3024
sg64
(lp3036
S':'
asbag57
(g78
g59
NtRp3037
(dp3038
g62
(dp3039
sg71
g3024
sg64
(lp3040
g57
(g58
g59
NtRp3041
(dp3042
g62
(dp3043
g70
I3
ssg71
g3037
sg64
(lp3044
g1744
asbasbasbag57
(g73
g59
NtRp3045
(dp3046
g62
(dp3047
sg71
g2492
sg64
(lp3048
g57
(g78
g59
NtRp3049
(dp3050
g62
(dp3051
g82
g83
ssg71
g3045
sg64
(lp3052
S'wsgi.version'
p3053
asbag57
(g78
g59
NtRp3054
(dp3055
g62
(dp3056
g89
g90
ssg71
g3045
sg64
(lp3057
S':'
asbag57
(g78
g59
NtRp3058
(dp3059
g62
(dp3060
sg71
g3045
sg64
(lp3061
g57
(g58
g59
NtRp3062
(dp3063
g62
(dp3064
g70
I3
ssg71
g3058
sg64
(lp3065
S'1'
asbasbasbasbasbasbasbasbasbasbasbasbasbsS'frames'
p3066
(lp3067
(dp3068
S'file'
p3069
S'/home/alumno/Escritorio/web2py/gluon/restricted.py'
p3070
sS'dump'
p3071
(dp3072
S'environment'
p3073
S"{'A': <class 'gluon.html.A'>, 'Auth': <class 'gluon.tools.Auth'>, 'B': <class 'gluon.html.B'>, 'BEAUTIFY': <class 'gluon.html.BEAUTIFY'>, 'BODY': <class 'gluon.html.BODY'>, 'BR': <class 'gluon.html.BR'>, 'BUTTON': <class 'gluon.html.BUTTON'>, 'CAT': <class 'gluon.html.CAT'>, 'CENTER': <class 'gluon.html.CENTER'>, 'CLEANUP': <class 'gluon.validators.CLEANUP'>, ...}"
p3074
sS'ccode'
p3075
S'<code object <module> at 0x7ff998665c30, file "/...ions/miFacebook/views/default/wall.html", line 1>'
p3076
ssS'lnum'
p3077
I209
sS'lines'
p3078
(dp3079
I204
S'    try:'
p3080
sI205
S'        if type(code) == types.CodeType:'
p3081
sI206
S'            ccode = code'
p3082
sI207
S'        else:'
p3083
sI208
S'            ccode = compile2(code,layer)'
p3084
sI209
S'        exec ccode in environment'
p3085
sI210
S'    except HTTP:'
p3086
sI211
S'        raise'
p3087
sI212
S'    except RestrictedError:'
p3088
sI213
S'        # do not encapsulate (obfuscate) the original RestrictedError'
p3089
ssS'call'
p3090
S'(code=\'response.write(\\\'<!DOCTYPE html>\\\\n<!-- paulirish...."></script>\\\\n</body>\\\\n</html>\\\\n\\\\n\\\', escape=False)\', environment={\'A\': <class \'gluon.html.A\'>, \'Auth\': <class \'gluon.tools.Auth\'>, \'B\': <class \'gluon.html.B\'>, \'BEAUTIFY\': <class \'gluon.html.BEAUTIFY\'>, \'BODY\': <class \'gluon.html.BODY\'>, \'BR\': <class \'gluon.html.BR\'>, \'BUTTON\': <class \'gluon.html.BUTTON\'>, \'CAT\': <class \'gluon.html.CAT\'>, \'CENTER\': <class \'gluon.html.CENTER\'>, \'CLEANUP\': <class \'gluon.validators.CLEANUP\'>, ...}, layer=\'/home/alumno/Escritorio/web2py/applications/miFacebook/views/default/wall.html\')'
p3091
sS'func'
p3092
S'restricted'
p3093
sa(dp3094
g3069
S'/home/alumno/Escritorio/web2py/applications/miFacebook/views/default/wall.html'
p3095
sg3071
(dp3096
sg3077
I79
sg3078
(dp3097
I70
S'    response.write(\'\\n        <div class="span3 left-sidebar">\\n            \', escape=False)'
p3098
sI71
S"    response.write('\\n            <h3>Left Sidebar</h3>\\n            <p></p>\\n            ', escape=False)"
p3099
sI72
S"    response.write('\\n        </div>\\n        ', escape=False)"
p3100
sI73
S'    pass'
p3101
sI74
S'response.write(\'\\n\\n        <div class="\', escape=False)'
p3102
sI75
S'response.write(middle_columns)'
p3103
sI76
S'response.write(\'">\\n            \', escape=False)'
p3104
sI77
S"response.write('\\n            ', escape=False)"
p3105
sI78
S"response.write('\\n\\n\\n<h2>', escape=False)"
p3106
sI79
S'response.write(T(Profile))'
p3107
sI80
S"response.write('</h2>\\n', escape=False)"
p3108
sI81
S'response.write(crud.read(db.auth_user, user))'
p3109
sI82
S"response.write('\\n<h2>Messages</h2>\\n', escape=False)"
p3110
sI83
S"response.write('\\n            ', escape=False)"
p3111
sI84
S"response.write('\\n        </div>\\n\\n        ', escape=False)"
p3112
sI85
S'if right_sidebar_enabled:'
p3113
sI86
S'    response.write(\'\\n        <div class="span3">\\n            \', escape=False)'
p3114
sI87
S"    response.write('\\n            <h3>Right Sidebar</h3>\\n            <p></p>\\n            ', escape=False)"
p3115
sI88
S"    response.write('\\n        </div>\\n        ', escape=False)"
p3116
sI89
S'    pass'
p3117
ssg3090
S'()'
p3118
sg3092
S'<module>'
p3119
sasS'pyver'
p3120
S'Python 2.7.3: /usr/bin/python'
p3121
sS'session'
p3122
g57
(g58
g59
NtRp3123
(dp3124
g62
(dp3125
sg64
(lp3126
g57
(g66
g59
NtRp3127
(dp3128
g62
(dp3129
g70
I5
ssg71
Nsg64
(lp3130
g57
(g73
g59
NtRp3131
(dp3132
g62
(dp3133
sg71
g3127
sg64
(lp3134
g57
(g78
g59
NtRp3135
(dp3136
g62
(dp3137
g82
g83
ssg71
g3131
sg64
(lp3138
S'auth'
p3139
asbag57
(g78
g59
NtRp3140
(dp3141
g62
(dp3142
g89
g90
ssg71
g3131
sg64
(lp3143
S':'
asbag57
(g78
g59
NtRp3144
(dp3145
g62
(dp3146
sg71
g3131
sg64
(lp3147
g57
(g58
g59
NtRp3148
(dp3149
g62
(dp3150
g70
I5
ssg71
g3144
sg64
(lp3151
g57
(g66
g59
NtRp3152
(dp3153
g62
(dp3154
g70
I4
ssg71
Nsg64
(lp3155
g57
(g73
g59
NtRp3156
(dp3157
g62
(dp3158
sg71
g3152
sg64
(lp3159
g57
(g78
g59
NtRp3160
(dp3161
g62
(dp3162
g82
g83
ssg71
g3156
sg64
(lp3163
S'expiration'
p3164
asbag57
(g78
g59
NtRp3165
(dp3166
g62
(dp3167
g89
g90
ssg71
g3156
sg64
(lp3168
S':'
asbag57
(g78
g59
NtRp3169
(dp3170
g62
(dp3171
sg71
g3156
sg64
(lp3172
g57
(g58
g59
NtRp3173
(dp3174
g62
(dp3175
g70
I4
ssg71
g3169
sg64
(lp3176
S'3600'
p3177
asbasbasbag57
(g73
g59
NtRp3178
(dp3179
g62
(dp3180
sg71
g3152
sg64
(lp3181
g57
(g78
g59
NtRp3182
(dp3183
g62
(dp3184
g82
g83
ssg71
g3178
sg64
(lp3185
S'hmac_key'
p3186
asbag57
(g78
g59
NtRp3187
(dp3188
g62
(dp3189
g89
g90
ssg71
g3178
sg64
(lp3190
S':'
asbag57
(g78
g59
NtRp3191
(dp3192
g62
(dp3193
sg71
g3178
sg64
(lp3194
g57
(g58
g59
NtRp3195
(dp3196
g62
(dp3197
g70
I4
ssg71
g3191
sg64
(lp3198
S'ca85c87f-a622-466f-8ef0-f1816ad84d63'
p3199
asbasbasbag57
(g73
g59
NtRp3200
(dp3201
g62
(dp3202
sg71
g3152
sg64
(lp3203
g57
(g78
g59
NtRp3204
(dp3205
g62
(dp3206
g82
g83
ssg71
g3200
sg64
(lp3207
S'last_visit'
p3208
asbag57
(g78
g59
NtRp3209
(dp3210
g62
(dp3211
g89
g90
ssg71
g3200
sg64
(lp3212
S':'
asbag57
(g78
g59
NtRp3213
(dp3214
g62
(dp3215
sg71
g3200
sg64
(lp3216
g57
(g58
g59
NtRp3217
(dp3218
g62
(dp3219
g70
I4
ssg71
g3213
sg64
(lp3220
S'datetime.datetime(2012, 10, 16, 13, 11, 40, 200969)'
p3221
asbasbasbag57
(g73
g59
NtRp3222
(dp3223
g62
(dp3224
sg71
g3152
sg64
(lp3225
g57
(g78
g59
NtRp3226
(dp3227
g62
(dp3228
g82
g83
ssg71
g3222
sg64
(lp3229
S'remember'
p3230
asbag57
(g78
g59
NtRp3231
(dp3232
g62
(dp3233
g89
g90
ssg71
g3222
sg64
(lp3234
S':'
asbag57
(g78
g59
NtRp3235
(dp3236
g62
(dp3237
sg71
g3222
sg64
(lp3238
g57
(g58
g59
NtRp3239
(dp3240
g62
(dp3241
g70
I4
ssg71
g3235
sg64
(lp3242
g100
asbasbasbag57
(g73
g59
NtRp3243
(dp3244
g62
(dp3245
sg71
g3152
sg64
(lp3246
g57
(g78
g59
NtRp3247
(dp3248
g62
(dp3249
g82
g83
ssg71
g3243
sg64
(lp3250
S'user'
p3251
asbag57
(g78
g59
NtRp3252
(dp3253
g62
(dp3254
g89
g90
ssg71
g3243
sg64
(lp3255
S':'
asbag57
(g78
g59
NtRp3256
(dp3257
g62
(dp3258
sg71
g3243
sg64
(lp3259
g57
(g58
g59
NtRp3260
(dp3261
g62
(dp3262
g70
I4
ssg71
g3256
sg64
(lp3263
g57
(g66
g59
NtRp3264
(dp3265
g62
(dp3266
g70
I3
ssg71
Nsg64
(lp3267
g57
(g73
g59
NtRp3268
(dp3269
g62
(dp3270
sg71
g3264
sg64
(lp3271
g57
(g78
g59
NtRp3272
(dp3273
g62
(dp3274
g82
g83
ssg71
g3268
sg64
(lp3275
S'email'
p3276
asbag57
(g78
g59
NtRp3277
(dp3278
g62
(dp3279
g89
g90
ssg71
g3268
sg64
(lp3280
S':'
asbag57
(g78
g59
NtRp3281
(dp3282
g62
(dp3283
sg71
g3268
sg64
(lp3284
g57
(g58
g59
NtRp3285
(dp3286
g62
(dp3287
g70
I3
ssg71
g3281
sg64
(lp3288
S'lm@lm.com'
p3289
asbasbasbag57
(g73
g59
NtRp3290
(dp3291
g62
(dp3292
sg71
g3264
sg64
(lp3293
g57
(g78
g59
NtRp3294
(dp3295
g62
(dp3296
g82
g83
ssg71
g3290
sg64
(lp3297
S'first_name'
p3298
asbag57
(g78
g59
NtRp3299
(dp3300
g62
(dp3301
g89
g90
ssg71
g3290
sg64
(lp3302
S':'
asbag57
(g78
g59
NtRp3303
(dp3304
g62
(dp3305
sg71
g3290
sg64
(lp3306
g57
(g58
g59
NtRp3307
(dp3308
g62
(dp3309
g70
I3
ssg71
g3303
sg64
(lp3310
S'lm'
p3311
asbasbasbag57
(g73
g59
NtRp3312
(dp3313
g62
(dp3314
sg71
g3264
sg64
(lp3315
g57
(g78
g59
NtRp3316
(dp3317
g62
(dp3318
g82
g83
ssg71
g3312
sg64
(lp3319
S'id'
p3320
asbag57
(g78
g59
NtRp3321
(dp3322
g62
(dp3323
g89
g90
ssg71
g3312
sg64
(lp3324
S':'
asbag57
(g78
g59
NtRp3325
(dp3326
g62
(dp3327
sg71
g3312
sg64
(lp3328
g57
(g58
g59
NtRp3329
(dp3330
g62
(dp3331
g70
I3
ssg71
g3325
sg64
(lp3332
S'1'
asbasbasbag57
(g73
g59
NtRp3333
(dp3334
g62
(dp3335
sg71
g3264
sg64
(lp3336
g57
(g78
g59
NtRp3337
(dp3338
g62
(dp3339
g82
g83
ssg71
g3333
sg64
(lp3340
S'last_name'
p3341
asbag57
(g78
g59
NtRp3342
(dp3343
g62
(dp3344
g89
g90
ssg71
g3333
sg64
(lp3345
S':'
asbag57
(g78
g59
NtRp3346
(dp3347
g62
(dp3348
sg71
g3333
sg64
(lp3349
g57
(g58
g59
NtRp3350
(dp3351
g62
(dp3352
g70
I3
ssg71
g3346
sg64
(lp3353
S'morillas'
p3354
asbasbasbag57
(g73
g59
NtRp3355
(dp3356
g62
(dp3357
sg71
g3264
sg64
(lp3358
g57
(g78
g59
NtRp3359
(dp3360
g62
(dp3361
g82
g83
ssg71
g3355
sg64
(lp3362
S'password'
p3363
asbag57
(g78
g59
NtRp3364
(dp3365
g62
(dp3366
g89
g90
ssg71
g3355
sg64
(lp3367
S':'
asbag57
(g78
g59
NtRp3368
(dp3369
g62
(dp3370
sg71
g3355
sg64
(lp3371
g57
(g58
g59
NtRp3372
(dp3373
g62
(dp3374
g70
I3
ssg71
g3368
sg64
(lp3375
S'pbkdf2(1000,20,sha512)$bcf684206f8d3977$eae6e3bf6340a0f7d730fc6ea8e5a6c4d10fafe8'
p3376
asbasbasbag57
(g73
g59
NtRp3377
(dp3378
g62
(dp3379
sg71
g3264
sg64
(lp3380
g57
(g78
g59
NtRp3381
(dp3382
g62
(dp3383
g82
g83
ssg71
g3377
sg64
(lp3384
S'registration_id'
p3385
asbag57
(g78
g59
NtRp3386
(dp3387
g62
(dp3388
g89
g90
ssg71
g3377
sg64
(lp3389
S':'
asbag57
(g78
g59
NtRp3390
(dp3391
g62
(dp3392
sg71
g3377
sg64
(lp3393
g57
(g58
g59
NtRp3394
(dp3395
g62
(dp3396
g70
I3
ssg71
g3390
sg64
(lp3397
S''
asbasbasbag57
(g73
g59
NtRp3398
(dp3399
g62
(dp3400
sg71
g3264
sg64
(lp3401
g57
(g78
g59
NtRp3402
(dp3403
g62
(dp3404
g82
g83
ssg71
g3398
sg64
(lp3405
S'registration_key'
p3406
asbag57
(g78
g59
NtRp3407
(dp3408
g62
(dp3409
g89
g90
ssg71
g3398
sg64
(lp3410
S':'
asbag57
(g78
g59
NtRp3411
(dp3412
g62
(dp3413
sg71
g3398
sg64
(lp3414
g57
(g58
g59
NtRp3415
(dp3416
g62
(dp3417
g70
I3
ssg71
g3411
sg64
(lp3418
S''
asbasbasbag57
(g73
g59
NtRp3419
(dp3420
g62
(dp3421
sg71
g3264
sg64
(lp3422
g57
(g78
g59
NtRp3423
(dp3424
g62
(dp3425
g82
g83
ssg71
g3419
sg64
(lp3426
S'reset_password_key'
p3427
asbag57
(g78
g59
NtRp3428
(dp3429
g62
(dp3430
g89
g90
ssg71
g3419
sg64
(lp3431
S':'
asbag57
(g78
g59
NtRp3432
(dp3433
g62
(dp3434
sg71
g3419
sg64
(lp3435
g57
(g58
g59
NtRp3436
(dp3437
g62
(dp3438
g70
I3
ssg71
g3432
sg64
(lp3439
S''
asbasbasbasbasbasbasbag57
(g73
g59
NtRp3440
(dp3441
g62
(dp3442
sg71
g3152
sg64
(lp3443
g57
(g78
g59
NtRp3444
(dp3445
g62
(dp3446
g82
g83
ssg71
g3440
sg64
(lp3447
S'user_groups'
p3448
asbag57
(g78
g59
NtRp3449
(dp3450
g62
(dp3451
g89
g90
ssg71
g3440
sg64
(lp3452
S':'
asbag57
(g78
g59
NtRp3453
(dp3454
g62
(dp3455
sg71
g3440
sg64
(lp3456
g57
(g58
g59
NtRp3457
(dp3458
g62
(dp3459
g70
I4
ssg71
g3453
sg64
(lp3460
g57
(g66
g59
NtRp3461
(dp3462
g62
(dp3463
g70
I3
ssg71
Nsg64
(lp3464
g57
(g73
g59
NtRp3465
(dp3466
g62
(dp3467
sg71
g3461
sg64
(lp3468
g57
(g78
g59
NtRp3469
(dp3470
g62
(dp3471
g82
g83
ssg71
g3465
sg64
(lp3472
S'2'
asbag57
(g78
g59
NtRp3473
(dp3474
g62
(dp3475
g89
g90
ssg71
g3465
sg64
(lp3476
S':'
asbag57
(g78
g59
NtRp3477
(dp3478
g62
(dp3479
sg71
g3465
sg64
(lp3480
g57
(g58
g59
NtRp3481
(dp3482
g62
(dp3483
g70
I3
ssg71
g3477
sg64
(lp3484
S'user_1'
p3485
asbasbasbasbasbasbasbasbasbasbasbag57
(g73
g59
NtRp3486
(dp3487
g62
(dp3488
sg71
g3127
sg64
(lp3489
g57
(g78
g59
NtRp3490
(dp3491
g62
(dp3492
g82
g83
ssg71
g3486
sg64
(lp3493
S'flash'
p3494
asbag57
(g78
g59
NtRp3495
(dp3496
g62
(dp3497
g89
g90
ssg71
g3486
sg64
(lp3498
S':'
asbag57
(g78
g59
NtRp3499
(dp3500
g62
(dp3501
sg71
g3486
sg64
(lp3502
g57
(g58
g59
NtRp3503
(dp3504
g62
(dp3505
g70
I5
ssg71
g3499
sg64
(lp3506
S'None'
p3507
asbasbasbasbasbsS'etype'
p3508
S"<type 'exceptions.NameError'>"
p3509
sS'date'
p3510
S'Tue Oct 16 13:14:10 2012'
p3511
sS'response'
p3512
g57
(g58
g59
NtRp3513
(dp3514
g62
(dp3515
sg64
(lp3516
g57
(g66
g59
NtRp3517
(dp3518
g62
(dp3519
g70
I5
ssg71
Nsg64
(lp3520
g57
(g73
g59
NtRp3521
(dp3522
g62
(dp3523
sg71
g3517
sg64
(lp3524
g57
(g78
g59
NtRp3525
(dp3526
g62
(dp3527
g82
g83
ssg71
g3521
sg64
(lp3528
g155
asbag57
(g78
g59
NtRp3529
(dp3530
g62
(dp3531
g89
g90
ssg71
g3521
sg64
(lp3532
S':'
asbag57
(g78
g59
NtRp3533
(dp3534
g62
(dp3535
sg71
g3521
sg64
(lp3536
g57
(g58
g59
NtRp3537
(dp3538
g62
(dp3539
g70
I5
ssg71
g3533
sg64
(lp3540
S'<cStringIO.StringO object at 0x7ff99c1d67a0>'
p3541
asbasbasbag57
(g73
g59
NtRp3542
(dp3543
g62
(dp3544
sg71
g3517
sg64
(lp3545
g57
(g78
g59
NtRp3546
(dp3547
g62
(dp3548
g82
g83
ssg71
g3542
sg64
(lp3549
g243
asbag57
(g78
g59
NtRp3550
(dp3551
g62
(dp3552
g89
g90
ssg71
g3542
sg64
(lp3553
S':'
asbag57
(g78
g59
NtRp3554
(dp3555
g62
(dp3556
sg71
g3542
sg64
(lp3557
g57
(g58
g59
NtRp3558
(dp3559
g62
(dp3560
g70
I5
ssg71
g3554
sg64
(lp3561
g57
(g66
g59
NtRp3562
(dp3563
g62
(dp3564
g70
I4
ssg71
Nsg64
(lp3565
g57
(g73
g59
NtRp3566
(dp3567
g62
(dp3568
sg71
g3562
sg64
(lp3569
g57
(g78
g59
NtRp3570
(dp3571
g62
(dp3572
g82
g83
ssg71
g3566
sg64
(lp3573
S'session_id_mifacebook'
p3574
asbag57
(g78
g59
NtRp3575
(dp3576
g62
(dp3577
g89
g90
ssg71
g3566
sg64
(lp3578
S':'
asbag57
(g78
g59
NtRp3579
(dp3580
g62
(dp3581
sg71
g3566
sg64
(lp3582
g57
(g58
g59
NtRp3583
(dp3584
g62
(dp3585
g70
I4
ssg71
g3579
sg64
(lp3586
g475
ag57
(g66
g59
NtRp3587
(dp3588
g62
(dp3589
g70
I3
ssg71
Nsg64
(lp3590
g57
(g73
g59
NtRp3591
(dp3592
g62
(dp3593
sg71
g3587
sg64
(lp3594
g57
(g78
g59
NtRp3595
(dp3596
g62
(dp3597
g82
g83
ssg71
g3591
sg64
(lp3598
g294
asbag57
(g78
g59
NtRp3599
(dp3600
g62
(dp3601
g89
g90
ssg71
g3591
sg64
(lp3602
S':'
asbag57
(g78
g59
NtRp3603
(dp3604
g62
(dp3605
sg71
g3591
sg64
(lp3606
g57
(g58
g59
NtRp3607
(dp3608
g62
(dp3609
g70
I3
ssg71
g3603
sg64
(lp3610
S''
asbasbasbag57
(g73
g59
NtRp3611
(dp3612
g62
(dp3613
sg71
g3587
sg64
(lp3614
g57
(g78
g59
NtRp3615
(dp3616
g62
(dp3617
g82
g83
ssg71
g3611
sg64
(lp3618
g315
asbag57
(g78
g59
NtRp3619
(dp3620
g62
(dp3621
g89
g90
ssg71
g3611
sg64
(lp3622
S':'
asbag57
(g78
g59
NtRp3623
(dp3624
g62
(dp3625
sg71
g3611
sg64
(lp3626
g57
(g58
g59
NtRp3627
(dp3628
g62
(dp3629
g70
I3
ssg71
g3623
sg64
(lp3630
S''
asbasbasbag57
(g73
g59
NtRp3631
(dp3632
g62
(dp3633
sg71
g3587
sg64
(lp3634
g57
(g78
g59
NtRp3635
(dp3636
g62
(dp3637
g82
g83
ssg71
g3631
sg64
(lp3638
g336
asbag57
(g78
g59
NtRp3639
(dp3640
g62
(dp3641
g89
g90
ssg71
g3631
sg64
(lp3642
S':'
asbag57
(g78
g59
NtRp3643
(dp3644
g62
(dp3645
sg71
g3631
sg64
(lp3646
g57
(g58
g59
NtRp3647
(dp3648
g62
(dp3649
g70
I3
ssg71
g3643
sg64
(lp3650
S''
asbasbasbag57
(g73
g59
NtRp3651
(dp3652
g62
(dp3653
sg71
g3587
sg64
(lp3654
g57
(g78
g59
NtRp3655
(dp3656
g62
(dp3657
g82
g83
ssg71
g3651
sg64
(lp3658
g357
asbag57
(g78
g59
NtRp3659
(dp3660
g62
(dp3661
g89
g90
ssg71
g3651
sg64
(lp3662
S':'
asbag57
(g78
g59
NtRp3663
(dp3664
g62
(dp3665
sg71
g3651
sg64
(lp3666
g57
(g58
g59
NtRp3667
(dp3668
g62
(dp3669
g70
I3
ssg71
g3663
sg64
(lp3670
S''
asbasbasbag57
(g73
g59
NtRp3671
(dp3672
g62
(dp3673
sg71
g3587
sg64
(lp3674
g57
(g78
g59
NtRp3675
(dp3676
g62
(dp3677
g82
g83
ssg71
g3671
sg64
(lp3678
g378
asbag57
(g78
g59
NtRp3679
(dp3680
g62
(dp3681
g89
g90
ssg71
g3671
sg64
(lp3682
S':'
asbag57
(g78
g59
NtRp3683
(dp3684
g62
(dp3685
sg71
g3671
sg64
(lp3686
g57
(g58
g59
NtRp3687
(dp3688
g62
(dp3689
g70
I3
ssg71
g3683
sg64
(lp3690
S''
asbasbasbag57
(g73
g59
NtRp3691
(dp3692
g62
(dp3693
sg71
g3587
sg64
(lp3694
g57
(g78
g59
NtRp3695
(dp3696
g62
(dp3697
g82
g83
ssg71
g3691
sg64
(lp3698
g399
asbag57
(g78
g59
NtRp3699
(dp3700
g62
(dp3701
g89
g90
ssg71
g3691
sg64
(lp3702
S':'
asbag57
(g78
g59
NtRp3703
(dp3704
g62
(dp3705
sg71
g3691
sg64
(lp3706
g57
(g58
g59
NtRp3707
(dp3708
g62
(dp3709
g70
I3
ssg71
g3703
sg64
(lp3710
S'/'
asbasbasbag57
(g73
g59
NtRp3711
(dp3712
g62
(dp3713
sg71
g3587
sg64
(lp3714
g57
(g78
g59
NtRp3715
(dp3716
g62
(dp3717
g82
g83
ssg71
g3711
sg64
(lp3718
g420
asbag57
(g78
g59
NtRp3719
(dp3720
g62
(dp3721
g89
g90
ssg71
g3711
sg64
(lp3722
S':'
asbag57
(g78
g59
NtRp3723
(dp3724
g62
(dp3725
sg71
g3711
sg64
(lp3726
g57
(g58
g59
NtRp3727
(dp3728
g62
(dp3729
g70
I3
ssg71
g3723
sg64
(lp3730
S''
asbasbasbag57
(g73
g59
NtRp3731
(dp3732
g62
(dp3733
sg71
g3587
sg64
(lp3734
g57
(g78
g59
NtRp3735
(dp3736
g62
(dp3737
g82
g83
ssg71
g3731
sg64
(lp3738
g441
asbag57
(g78
g59
NtRp3739
(dp3740
g62
(dp3741
g89
g90
ssg71
g3731
sg64
(lp3742
S':'
asbag57
(g78
g59
NtRp3743
(dp3744
g62
(dp3745
sg71
g3731
sg64
(lp3746
g57
(g58
g59
NtRp3747
(dp3748
g62
(dp3749
g70
I3
ssg71
g3743
sg64
(lp3750
S''
asbasbasbasbasbasbasbasbasbasbasbag57
(g73
g59
NtRp3751
(dp3752
g62
(dp3753
sg71
g3517
sg64
(lp3754
g57
(g78
g59
NtRp3755
(dp3756
g62
(dp3757
g82
g83
ssg71
g3751
sg64
(lp3758
S'delimiters'
p3759
asbag57
(g78
g59
NtRp3760
(dp3761
g62
(dp3762
g89
g90
ssg71
g3751
sg64
(lp3763
S':'
asbag57
(g78
g59
NtRp3764
(dp3765
g62
(dp3766
sg71
g3751
sg64
(lp3767
g57
(g58
g59
NtRp3768
(dp3769
g62
(dp3770
g70
I5
ssg71
g3764
sg64
(lp3771
g57
(g66
g59
NtRp3772
(dp3773
g62
(dp3774
g70
I4
ssg71
Nsg64
(lp3775
g57
(g73
g59
NtRp3776
(dp3777
g62
(dp3778
sg71
g3772
sg64
(lp3779
g57
(g78
g59
NtRp3780
(dp3781
g62
(dp3782
sg71
g3776
sg64
(lp3783
g57
(g58
g59
NtRp3784
(dp3785
g62
(dp3786
g70
I4
ssg71
g3780
sg64
(lp3787
S'{{'
p3788
asbasbasbag57
(g73
g59
NtRp3789
(dp3790
g62
(dp3791
sg71
g3772
sg64
(lp3792
g57
(g78
g59
NtRp3793
(dp3794
g62
(dp3795
sg71
g3789
sg64
(lp3796
g57
(g58
g59
NtRp3797
(dp3798
g62
(dp3799
g70
I4
ssg71
g3793
sg64
(lp3800
S'}}'
p3801
asbasbasbasbasbasbasbag57
(g73
g59
NtRp3802
(dp3803
g62
(dp3804
sg71
g3517
sg64
(lp3805
g57
(g78
g59
NtRp3806
(dp3807
g62
(dp3808
g82
g83
ssg71
g3802
sg64
(lp3809
S'files'
p3810
asbag57
(g78
g59
NtRp3811
(dp3812
g62
(dp3813
g89
g90
ssg71
g3802
sg64
(lp3814
S':'
asbag57
(g78
g59
NtRp3815
(dp3816
g62
(dp3817
sg71
g3802
sg64
(lp3818
g57
(g58
g59
NtRp3819
(dp3820
g62
(dp3821
g70
I5
ssg71
g3815
sg64
(lp3822
g57
(g66
g59
NtRp3823
(dp3824
g62
(dp3825
g70
I4
ssg71
Nsg64
(lp3826
g57
(g73
g59
NtRp3827
(dp3828
g62
(dp3829
sg71
g3823
sg64
(lp3830
g57
(g78
g59
NtRp3831
(dp3832
g62
(dp3833
sg71
g3827
sg64
(lp3834
g57
(g58
g59
NtRp3835
(dp3836
g62
(dp3837
g70
I4
ssg71
g3831
sg64
(lp3838
S'/miFacebook/static/js/jquery.js'
p3839
asbasbasbag57
(g73
g59
NtRp3840
(dp3841
g62
(dp3842
sg71
g3823
sg64
(lp3843
g57
(g78
g59
NtRp3844
(dp3845
g62
(dp3846
sg71
g3840
sg64
(lp3847
g57
(g58
g59
NtRp3848
(dp3849
g62
(dp3850
g70
I4
ssg71
g3844
sg64
(lp3851
S'/miFacebook/static/css/calendar.css'
p3852
asbasbasbag57
(g73
g59
NtRp3853
(dp3854
g62
(dp3855
sg71
g3823
sg64
(lp3856
g57
(g78
g59
NtRp3857
(dp3858
g62
(dp3859
sg71
g3853
sg64
(lp3860
g57
(g58
g59
NtRp3861
(dp3862
g62
(dp3863
g70
I4
ssg71
g3857
sg64
(lp3864
S'/miFacebook/static/js/calendar.js'
p3865
asbasbasbag57
(g73
g59
NtRp3866
(dp3867
g62
(dp3868
sg71
g3823
sg64
(lp3869
g57
(g78
g59
NtRp3870
(dp3871
g62
(dp3872
sg71
g3866
sg64
(lp3873
g57
(g58
g59
NtRp3874
(dp3875
g62
(dp3876
g70
I4
ssg71
g3870
sg64
(lp3877
S'/miFacebook/static/js/web2py.js'
p3878
asbasbasbag57
(g73
g59
NtRp3879
(dp3880
g62
(dp3881
sg71
g3823
sg64
(lp3882
g57
(g78
g59
NtRp3883
(dp3884
g62
(dp3885
sg71
g3879
sg64
(lp3886
g57
(g58
g59
NtRp3887
(dp3888
g62
(dp3889
g70
I4
ssg71
g3883
sg64
(lp3890
S'/miFacebook/static/css/bootstrap.min.css'
p3891
asbasbasbag57
(g73
g59
NtRp3892
(dp3893
g62
(dp3894
sg71
g3823
sg64
(lp3895
g57
(g78
g59
NtRp3896
(dp3897
g62
(dp3898
sg71
g3892
sg64
(lp3899
g57
(g58
g59
NtRp3900
(dp3901
g62
(dp3902
g70
I4
ssg71
g3896
sg64
(lp3903
S'/miFacebook/static/css/bootstrap-responsive.min.css'
p3904
asbasbasbag57
(g73
g59
NtRp3905
(dp3906
g62
(dp3907
sg71
g3823
sg64
(lp3908
g57
(g78
g59
NtRp3909
(dp3910
g62
(dp3911
sg71
g3905
sg64
(lp3912
g57
(g58
g59
NtRp3913
(dp3914
g62
(dp3915
g70
I4
ssg71
g3909
sg64
(lp3916
S'/miFacebook/static/css/web2py.css'
p3917
asbasbasbag57
(g73
g59
NtRp3918
(dp3919
g62
(dp3920
sg71
g3823
sg64
(lp3921
g57
(g78
g59
NtRp3922
(dp3923
g62
(dp3924
sg71
g3918
sg64
(lp3925
g57
(g58
g59
NtRp3926
(dp3927
g62
(dp3928
g70
I4
ssg71
g3922
sg64
(lp3929
S'/miFacebook/static/css/web2py_bootstrap.css'
p3930
asbasbasbasbasbasbasbag57
(g73
g59
NtRp3931
(dp3932
g62
(dp3933
sg71
g3517
sg64
(lp3934
g57
(g78
g59
NtRp3935
(dp3936
g62
(dp3937
g82
g83
ssg71
g3931
sg64
(lp3938
S'flash'
p3939
asbag57
(g78
g59
NtRp3940
(dp3941
g62
(dp3942
g89
g90
ssg71
g3931
sg64
(lp3943
S':'
asbag57
(g78
g59
NtRp3944
(dp3945
g62
(dp3946
sg71
g3931
sg64
(lp3947
g57
(g58
g59
NtRp3948
(dp3949
g62
(dp3950
g70
I5
ssg71
g3944
sg64
(lp3951
S''
asbasbasbag57
(g73
g59
NtRp3952
(dp3953
g62
(dp3954
sg71
g3517
sg64
(lp3955
g57
(g78
g59
NtRp3956
(dp3957
g62
(dp3958
g82
g83
ssg71
g3952
sg64
(lp3959
S'generic_patterns'
p3960
asbag57
(g78
g59
NtRp3961
(dp3962
g62
(dp3963
g89
g90
ssg71
g3952
sg64
(lp3964
S':'
asbag57
(g78
g59
NtRp3965
(dp3966
g62
(dp3967
sg71
g3952
sg64
(lp3968
g57
(g58
g59
NtRp3969
(dp3970
g62
(dp3971
g70
I5
ssg71
g3965
sg64
(lp3972
g57
(g66
g59
NtRp3973
(dp3974
g62
(dp3975
g70
I4
ssg71
Nsg64
(lp3976
g57
(g73
g59
NtRp3977
(dp3978
g62
(dp3979
sg71
g3973
sg64
(lp3980
g57
(g78
g59
NtRp3981
(dp3982
g62
(dp3983
sg71
g3977
sg64
(lp3984
g57
(g58
g59
NtRp3985
(dp3986
g62
(dp3987
g70
I4
ssg71
g3981
sg64
(lp3988
S'*'
asbasbasbasbasbasbasbag57
(g73
g59
NtRp3989
(dp3990
g62
(dp3991
sg71
g3517
sg64
(lp3992
g57
(g78
g59
NtRp3993
(dp3994
g62
(dp3995
g82
g83
ssg71
g3989
sg64
(lp3996
S'google_analytics_id'
p3997
asbag57
(g78
g59
NtRp3998
(dp3999
g62
(dp4000
g89
g90
ssg71
g3989
sg64
(lp4001
S':'
asbag57
(g78
g59
NtRp4002
(dp4003
g62
(dp4004
sg71
g3989
sg64
(lp4005
g57
(g58
g59
NtRp4006
(dp4007
g62
(dp4008
g70
I5
ssg71
g4002
sg64
(lp4009
S'None'
p4010
asbasbasbag57
(g73
g59
NtRp4011
(dp4012
g62
(dp4013
sg71
g3517
sg64
(lp4014
g57
(g78
g59
NtRp4015
(dp4016
g62
(dp4017
g82
g83
ssg71
g4011
sg64
(lp4018
S'headers'
p4019
asbag57
(g78
g59
NtRp4020
(dp4021
g62
(dp4022
g89
g90
ssg71
g4011
sg64
(lp4023
S':'
asbag57
(g78
g59
NtRp4024
(dp4025
g62
(dp4026
sg71
g4011
sg64
(lp4027
g57
(g58
g59
NtRp4028
(dp4029
g62
(dp4030
g70
I5
ssg71
g4024
sg64
(lp4031
g57
(g66
g59
NtRp4032
(dp4033
g62
(dp4034
g70
I4
ssg71
Nsg64
(lp4035
g57
(g73
g59
NtRp4036
(dp4037
g62
(dp4038
sg71
g4032
sg64
(lp4039
g57
(g78
g59
NtRp4040
(dp4041
g62
(dp4042
g82
g83
ssg71
g4036
sg64
(lp4043
S'X-Powered-By'
p4044
asbag57
(g78
g59
NtRp4045
(dp4046
g62
(dp4047
g89
g90
ssg71
g4036
sg64
(lp4048
S':'
asbag57
(g78
g59
NtRp4049
(dp4050
g62
(dp4051
sg71
g4036
sg64
(lp4052
g57
(g58
g59
NtRp4053
(dp4054
g62
(dp4055
g70
I4
ssg71
g4049
sg64
(lp4056
S'web2py'
p4057
asbasbasbasbasbasbasbag57
(g73
g59
NtRp4058
(dp4059
g62
(dp4060
sg71
g3517
sg64
(lp4061
g57
(g78
g59
NtRp4062
(dp4063
g62
(dp4064
g82
g83
ssg71
g4058
sg64
(lp4065
S'menu'
p4066
asbag57
(g78
g59
NtRp4067
(dp4068
g62
(dp4069
g89
g90
ssg71
g4058
sg64
(lp4070
S':'
asbag57
(g78
g59
NtRp4071
(dp4072
g62
(dp4073
sg71
g4058
sg64
(lp4074
g57
(g58
g59
NtRp4075
(dp4076
g62
(dp4077
g70
I5
ssg71
g4071
sg64
(lp4078
g57
(g66
g59
NtRp4079
(dp4080
g62
(dp4081
g70
I4
ssg71
Nsg64
(lp4082
g57
(g73
g59
NtRp4083
(dp4084
g62
(dp4085
sg71
g4079
sg64
(lp4086
g57
(g78
g59
NtRp4087
(dp4088
g62
(dp4089
sg71
g4083
sg64
(lp4090
g57
(g58
g59
NtRp4091
(dp4092
g62
(dp4093
g70
I4
ssg71
g4087
sg64
(lp4094
g57
(g66
g59
NtRp4095
(dp4096
g62
(dp4097
g70
I3
ssg71
Nsg64
(lp4098
g57
(g73
g59
NtRp4099
(dp4100
g62
(dp4101
sg71
g4095
sg64
(lp4102
g57
(g78
g59
NtRp4103
(dp4104
g62
(dp4105
sg71
g4099
sg64
(lp4106
g57
(g58
g59
NtRp4107
(dp4108
g62
(dp4109
g70
I3
ssg71
g4103
sg64
(lp4110
cgluon.languages
lazyT_unpickle
p4111
(S's\x04\x00\x00\x00Home'
tRp4112
asbasbasbag57
(g73
g59
NtRp4113
(dp4114
g62
(dp4115
sg71
g4095
sg64
(lp4116
g57
(g78
g59
NtRp4117
(dp4118
g62
(dp4119
sg71
g4113
sg64
(lp4120
g57
(g58
g59
NtRp4121
(dp4122
g62
(dp4123
g70
I3
ssg71
g4117
sg64
(lp4124
g100
asbasbasbag57
(g73
g59
NtRp4125
(dp4126
g62
(dp4127
sg71
g4095
sg64
(lp4128
g57
(g78
g59
NtRp4129
(dp4130
g62
(dp4131
sg71
g4125
sg64
(lp4132
g57
(g58
g59
NtRp4133
(dp4134
g62
(dp4135
g70
I3
ssg71
g4129
sg64
(lp4136
S'/miFacebook/default/index'
p4137
asbasbasbag57
(g73
g59
NtRp4138
(dp4139
g62
(dp4140
sg71
g4095
sg64
(lp4141
g57
(g78
g59
NtRp4142
(dp4143
g62
(dp4144
sg71
g4138
sg64
(lp4145
g57
(g58
g59
NtRp4146
(dp4147
g62
(dp4148
g70
I3
ssg71
g4142
sg64
(lp4149
g57
(g66
g59
NtRp4150
(dp4151
g62
(dp4152
g70
I2
ssg71
Nsg64
(lp4153
sbasbasbasbasbasbasbasbag57
(g73
g59
NtRp4154
(dp4155
g62
(dp4156
sg71
g4079
sg64
(lp4157
g57
(g78
g59
NtRp4158
(dp4159
g62
(dp4160
sg71
g4154
sg64
(lp4161
g57
(g58
g59
NtRp4162
(dp4163
g62
(dp4164
g70
I4
ssg71
g4158
sg64
(lp4165
g57
(g66
g59
NtRp4166
(dp4167
g62
(dp4168
g70
I3
ssg71
Nsg64
(lp4169
g57
(g73
g59
NtRp4170
(dp4171
g62
(dp4172
sg71
g4166
sg64
(lp4173
g57
(g78
g59
NtRp4174
(dp4175
g62
(dp4176
sg71
g4170
sg64
(lp4177
g57
(g58
g59
NtRp4178
(dp4179
g62
(dp4180
g70
I3
ssg71
g4174
sg64
(lp4181
g57
(cgluon.html
SPAN
p4182
g59
NtRp4183
(dp4184
g62
(dp4185
g82
S'color:yellow'
p4186
ssg71
g57
(cgluon.html
A
p4187
g59
NtRp4188
(dp4189
g62
(dp4190
S'_href'
p4191
S'http://web2py.com'
p4192
ssg71
g57
(cgluon.html
LI
p4193
g59
NtRp4194
(dp4195
g62
(dp4196
S'_class'
p4197
S'dropdown'
p4198
ssg71
g57
(cgluon.html
UL
p4199
g59
NtRp4200
(dp4201
g62
(dp4202
S'li_class'
p4203
g4198
sS'mobile'
p4204
I00
sg4197
S'nav'
p4205
sS'ul_class'
p4206
S'dropdown-menu'
p4207
sS'li_active'
p4208
S'web2py-menu-active'
p4209
ssg71
Nsg64
(lp4210
g57
(g4193
g59
NtRp4211
(dp4212
g62
(dp4213
sg71
g4200
sg64
(lp4214
g57
(g4187
g59
NtRp4215
(dp4216
g62
(dp4217
g4191
g4137
ssg71
g4211
sg64
(lp4218
g4112
asbasbag4194
asbsg64
(lp4219
g4188
ag57
(g4199
g59
NtRp4220
(dp4221
g62
(dp4222
g4197
g4207
ssg71
g4194
sg64
(lp4223
g57
(g4193
g59
NtRp4224
(dp4225
g62
(dp4226
sg71
g4220
sg64
(lp4227
g57
(g4187
g59
NtRp4228
(dp4229
g62
(dp4230
g4191
S'/admin/default/site'
p4231
ssg71
g4224
sg64
(lp4232
g4111
(S's\x08\x00\x00\x00My Sites'
tRp4233
asbasbag57
(g4193
g59
NtRp4234
(dp4235
g62
(dp4236
g4197
g4198
ssg71
g4220
sg64
(lp4237
g57
(g4187
g59
NtRp4238
(dp4239
g62
(dp4240
g4191
S'/admin/default/design/miFacebook'
p4241
ssg71
g4234
sg64
(lp4242
g4111
(S's\x08\x00\x00\x00This App'
tRp4243
asbag57
(g4199
g59
NtRp4244
(dp4245
g62
(dp4246
g4197
g4207
ssg71
g4234
sg64
(lp4247
g57
(g4193
g59
NtRp4248
(dp4249
g62
(dp4250
sg71
g4244
sg64
(lp4251
g57
(g4187
g59
NtRp4252
(dp4253
g62
(dp4254
g4191
S'/admin/default/edit/miFacebook/controllers/default.py'
p4255
ssg71
g4248
sg64
(lp4256
g4111
(S's\x0b\x00\x00\x00Controlador'
tRp4257
asbasbag57
(g4193
g59
NtRp4258
(dp4259
g62
(dp4260
sg71
g4244
sg64
(lp4261
g57
(g4187
g59
NtRp4262
(dp4263
g62
(dp4264
g4191
S'/admin/default/edit/miFacebook/views/default/wall.html'
p4265
ssg71
g4258
sg64
(lp4266
g4111
(S's\x05\x00\x00\x00Vista'
tRp4267
asbasbag57
(g4193
g59
NtRp4268
(dp4269
g62
(dp4270
sg71
g4244
sg64
(lp4271
g57
(g4187
g59
NtRp4272
(dp4273
g62
(dp4274
g4191
S'/admin/default/edit/miFacebook/views/layout.html'
p4275
ssg71
g4268
sg64
(lp4276
g4111
(S's\x12\x00\x00\x00Dise\xc3\xb1o de p\xc3\xa1gina'
tRp4277
asbasbag57
(g4193
g59
NtRp4278
(dp4279
g62
(dp4280
sg71
g4244
sg64
(lp4281
g57
(g4187
g59
NtRp4282
(dp4283
g62
(dp4284
g4191
S'/admin/default/edit/miFacebook/static/css/web2py.css'
p4285
ssg71
g4278
sg64
(lp4286
g4111
(S's\x0e\x00\x00\x00Hoja de estilo'
tRp4287
asbasbag57
(g4193
g59
NtRp4288
(dp4289
g62
(dp4290
sg71
g4244
sg64
(lp4291
g57
(g4187
g59
NtRp4292
(dp4293
g62
(dp4294
g4191
S'/admin/default/edit/miFacebook/models/db.py'
p4295
ssg71
g4288
sg64
(lp4296
g4111
(S's\x0b\x00\x00\x00Modelo "db"'
tRp4297
asbasbag57
(g4193
g59
NtRp4298
(dp4299
g62
(dp4300
sg71
g4244
sg64
(lp4301
g57
(g4187
g59
NtRp4302
(dp4303
g62
(dp4304
g4191
S'/admin/default/edit/miFacebook/models/menu.py'
p4305
ssg71
g4298
sg64
(lp4306
g4111
(S's\r\x00\x00\x00Modelo "menu"'
tRp4307
asbasbag57
(g4193
g59
NtRp4308
(dp4309
g62
(dp4310
sg71
g4244
sg64
(lp4311
g57
(g4187
g59
NtRp4312
(dp4313
g62
(dp4314
g4191
S'/miFacebook/appadmin/index'
p4315
ssg71
g4308
sg64
(lp4316
g4111
(S's\r\x00\x00\x00base de datos'
tRp4317
asbasbag57
(g4193
g59
NtRp4318
(dp4319
g62
(dp4320
sg71
g4244
sg64
(lp4321
g57
(g4187
g59
NtRp4322
(dp4323
g62
(dp4324
g4191
S'/admin/default/errors/miFacebook'
p4325
ssg71
g4318
sg64
(lp4326
g4111
(S's\x06\x00\x00\x00Errors'
tRp4327
asbasbag57
(g4193
g59
NtRp4328
(dp4329
g62
(dp4330
sg71
g4244
sg64
(lp4331
g57
(g4187
g59
NtRp4332
(dp4333
g62
(dp4334
g4191
S'/admin/default/about/miFacebook'
p4335
ssg71
g4328
sg64
(lp4336
g4111
(S's\t\x00\x00\x00Acerca de'
tRp4337
asbasbasbasbag57
(g4193
g59
NtRp4338
(dp4339
g62
(dp4340
g4197
g4198
ssg71
g4220
sg64
(lp4341
g57
(g4187
g59
NtRp4342
(dp4343
g62
(dp4344
g4191
S'http://www.web2py.com'
p4345
ssg71
g4338
sg64
(lp4346
S'web2py.com'
p4347
asbag57
(g4199
g59
NtRp4348
(dp4349
g62
(dp4350
g4197
g4207
ssg71
g4338
sg64
(lp4351
g57
(g4193
g59
NtRp4352
(dp4353
g62
(dp4354
sg71
g4348
sg64
(lp4355
g57
(g4187
g59
NtRp4356
(dp4357
g62
(dp4358
g4191
S'http://www.web2py.com/examples/default/download'
p4359
ssg71
g4352
sg64
(lp4360
g4111
(S's\x08\x00\x00\x00Download'
tRp4361
asbasbag57
(g4193
g59
NtRp4362
(dp4363
g62
(dp4364
sg71
g4348
sg64
(lp4365
g57
(g4187
g59
NtRp4366
(dp4367
g62
(dp4368
g4191
S'http://www.web2py.com/examples/default/support'
p4369
ssg71
g4362
sg64
(lp4370
g4111
(S's\x07\x00\x00\x00Support'
tRp4371
asbasbag57
(g4193
g59
NtRp4372
(dp4373
g62
(dp4374
sg71
g4348
sg64
(lp4375
g57
(g4187
g59
NtRp4376
(dp4377
g62
(dp4378
g4191
S'http://web2py.com/demo_admin'
p4379
ssg71
g4372
sg64
(lp4380
g4111
(S's\x04\x00\x00\x00Demo'
tRp4381
asbasbag57
(g4193
g59
NtRp4382
(dp4383
g62
(dp4384
sg71
g4348
sg64
(lp4385
g57
(g4187
g59
NtRp4386
(dp4387
g62
(dp4388
g4191
S'http://web2py.com/examples/default/examples'
p4389
ssg71
g4382
sg64
(lp4390
g4111
(S's\x0e\x00\x00\x00Quick Examples'
tRp4391
asbasbag57
(g4193
g59
NtRp4392
(dp4393
g62
(dp4394
sg71
g4348
sg64
(lp4395
g57
(g4187
g59
NtRp4396
(dp4397
g62
(dp4398
g4191
S'http://web2py.com/AlterEgo'
p4399
ssg71
g4392
sg64
(lp4400
g4111
(S's\x03\x00\x00\x00FAQ'
tRp4401
asbasbag57
(g4193
g59
NtRp4402
(dp4403
g62
(dp4404
sg71
g4348
sg64
(lp4405
g57
(g4187
g59
NtRp4406
(dp4407
g62
(dp4408
g4191
S'http://www.web2py.com/examples/default/videos/'
p4409
ssg71
g4402
sg64
(lp4410
g4111
(S's\x06\x00\x00\x00Videos'
tRp4411
asbasbag57
(g4193
g59
NtRp4412
(dp4413
g62
(dp4414
sg71
g4348
sg64
(lp4415
g57
(g4187
g59
NtRp4416
(dp4417
g62
(dp4418
g4191
S'http://web2py.com/appliances'
p4419
ssg71
g4412
sg64
(lp4420
g4111
(S's\x11\x00\x00\x00Free Applications'
tRp4421
asbasbag57
(g4193
g59
NtRp4422
(dp4423
g62
(dp4424
sg71
g4348
sg64
(lp4425
g57
(g4187
g59
NtRp4426
(dp4427
g62
(dp4428
g4191
S'http://web2py.com/plugins'
p4429
ssg71
g4422
sg64
(lp4430
g4111
(S's\x07\x00\x00\x00Plugins'
tRp4431
asbasbag57
(g4193
g59
NtRp4432
(dp4433
g62
(dp4434
sg71
g4348
sg64
(lp4435
g57
(g4187
g59
NtRp4436
(dp4437
g62
(dp4438
g4191
S'http://web2py.com/layouts'
p4439
ssg71
g4432
sg64
(lp4440
g4111
(S's\x07\x00\x00\x00Layouts'
tRp4441
asbasbag57
(g4193
g59
NtRp4442
(dp4443
g62
(dp4444
sg71
g4348
sg64
(lp4445
g57
(g4187
g59
NtRp4446
(dp4447
g62
(dp4448
g4191
S'http://web2pyslices.com/'
p4449
ssg71
g4442
sg64
(lp4450
g4111
(S's\x07\x00\x00\x00Recipes'
tRp4451
asbasbag57
(g4193
g59
NtRp4452
(dp4453
g62
(dp4454
sg71
g4348
sg64
(lp4455
g57
(g4187
g59
NtRp4456
(dp4457
g62
(dp4458
g4191
S'http://web2py.com/semantic'
p4459
ssg71
g4452
sg64
(lp4460
g4111
(S's\x08\x00\x00\x00Semantic'
tRp4461
asbasbasbasbag57
(g4193
g59
NtRp4462
(dp4463
g62
(dp4464
g4197
g4198
ssg71
g4220
sg64
(lp4465
g57
(g4187
g59
NtRp4466
(dp4467
g62
(dp4468
g4191
S'http://www.web2py.com/book'
p4469
ssg71
g4462
sg64
(lp4470
g4111
(S's\x0e\x00\x00\x00Documentaci\xc3\xb3n'
tRp4471
asbag57
(g4199
g59
NtRp4472
(dp4473
g62
(dp4474
g4197
g4207
ssg71
g4462
sg64
(lp4475
g57
(g4193
g59
NtRp4476
(dp4477
g62
(dp4478
sg71
g4472
sg64
(lp4479
g57
(g4187
g59
NtRp4480
(dp4481
g62
(dp4482
g4191
S'http://www.web2py.com/book/default/chapter/00'
p4483
ssg71
g4476
sg64
(lp4484
g4111
(S's\x07\x00\x00\x00Preface'
tRp4485
asbasbag57
(g4193
g59
NtRp4486
(dp4487
g62
(dp4488
sg71
g4472
sg64
(lp4489
g57
(g4187
g59
NtRp4490
(dp4491
g62
(dp4492
g4191
S'http://www.web2py.com/book/default/chapter/01'
p4493
ssg71
g4486
sg64
(lp4494
g4111
(S's\x0c\x00\x00\x00Introduction'
tRp4495
asbasbag57
(g4193
g59
NtRp4496
(dp4497
g62
(dp4498
sg71
g4472
sg64
(lp4499
g57
(g4187
g59
NtRp4500
(dp4501
g62
(dp4502
g4191
S'http://www.web2py.com/book/default/chapter/02'
p4503
ssg71
g4496
sg64
(lp4504
g4111
(S's\x06\x00\x00\x00Python'
tRp4505
asbasbag57
(g4193
g59
NtRp4506
(dp4507
g62
(dp4508
sg71
g4472
sg64
(lp4509
g57
(g4187
g59
NtRp4510
(dp4511
g62
(dp4512
g4191
S'http://www.web2py.com/book/default/chapter/03'
p4513
ssg71
g4506
sg64
(lp4514
g4111
(S's\x08\x00\x00\x00Overview'
tRp4515
asbasbag57
(g4193
g59
NtRp4516
(dp4517
g62
(dp4518
sg71
g4472
sg64
(lp4519
g57
(g4187
g59
NtRp4520
(dp4521
g62
(dp4522
g4191
S'http://www.web2py.com/book/default/chapter/04'
p4523
ssg71
g4516
sg64
(lp4524
g4111
(S's\x08\x00\x00\x00The Core'
tRp4525
asbasbag57
(g4193
g59
NtRp4526
(dp4527
g62
(dp4528
sg71
g4472
sg64
(lp4529
g57
(g4187
g59
NtRp4530
(dp4531
g62
(dp4532
g4191
S'http://www.web2py.com/book/default/chapter/05'
p4533
ssg71
g4526
sg64
(lp4534
g4111
(S's\t\x00\x00\x00The Views'
tRp4535
asbasbag57
(g4193
g59
NtRp4536
(dp4537
g62
(dp4538
sg71
g4472
sg64
(lp4539
g57
(g4187
g59
NtRp4540
(dp4541
g62
(dp4542
g4191
S'http://www.web2py.com/book/default/chapter/06'
p4543
ssg71
g4536
sg64
(lp4544
g4111
(S's\r\x00\x00\x00base de datos'
tRp4545
asbasbag57
(g4193
g59
NtRp4546
(dp4547
g62
(dp4548
sg71
g4472
sg64
(lp4549
g57
(g4187
g59
NtRp4550
(dp4551
g62
(dp4552
g4191
S'http://www.web2py.com/book/default/chapter/07'
p4553
ssg71
g4546
sg64
(lp4554
g4111
(S's\x14\x00\x00\x00Forms and Validators'
tRp4555
asbasbag57
(g4193
g59
NtRp4556
(dp4557
g62
(dp4558
sg71
g4472
sg64
(lp4559
g57
(g4187
g59
NtRp4560
(dp4561
g62
(dp4562
g4191
S'http://www.web2py.com/book/default/chapter/08'
p4563
ssg71
g4556
sg64
(lp4564
g4111
(S's\r\x00\x00\x00Email and SMS'
tRp4565
asbasbag57
(g4193
g59
NtRp4566
(dp4567
g62
(dp4568
sg71
g4472
sg64
(lp4569
g57
(g4187
g59
NtRp4570
(dp4571
g62
(dp4572
g4191
S'http://www.web2py.com/book/default/chapter/09'
p4573
ssg71
g4566
sg64
(lp4574
g4111
(S's\x0e\x00\x00\x00Access Control'
tRp4575
asbasbag57
(g4193
g59
NtRp4576
(dp4577
g62
(dp4578
sg71
g4472
sg64
(lp4579
g57
(g4187
g59
NtRp4580
(dp4581
g62
(dp4582
g4191
S'http://www.web2py.com/book/default/chapter/10'
p4583
ssg71
g4576
sg64
(lp4584
g4111
(S's\x08\x00\x00\x00Services'
tRp4585
asbasbag57
(g4193
g59
NtRp4586
(dp4587
g62
(dp4588
sg71
g4472
sg64
(lp4589
g57
(g4187
g59
NtRp4590
(dp4591
g62
(dp4592
g4191
S'http://www.web2py.com/book/default/chapter/11'
p4593
ssg71
g4586
sg64
(lp4594
g4111
(S's\x0c\x00\x00\x00Ajax Recipes'
tRp4595
asbasbag57
(g4193
g59
NtRp4596
(dp4597
g62
(dp4598
sg71
g4472
sg64
(lp4599
g57
(g4187
g59
NtRp4600
(dp4601
g62
(dp4602
g4191
S'http://www.web2py.com/book/default/chapter/12'
p4603
ssg71
g4596
sg64
(lp4604
g4111
(S's\x16\x00\x00\x00Components and Plugins'
tRp4605
asbasbag57
(g4193
g59
NtRp4606
(dp4607
g62
(dp4608
sg71
g4472
sg64
(lp4609
g57
(g4187
g59
NtRp4610
(dp4611
g62
(dp4612
g4191
S'http://www.web2py.com/book/default/chapter/13'
p4613
ssg71
g4606
sg64
(lp4614
g4111
(S's\x12\x00\x00\x00Deployment Recipes'
tRp4615
asbasbag57
(g4193
g59
NtRp4616
(dp4617
g62
(dp4618
sg71
g4472
sg64
(lp4619
g57
(g4187
g59
NtRp4620
(dp4621
g62
(dp4622
g4191
S'http://www.web2py.com/book/default/chapter/14'
p4623
ssg71
g4616
sg64
(lp4624
g4111
(S's\r\x00\x00\x00Other Recipes'
tRp4625
asbasbag57
(g4193
g59
NtRp4626
(dp4627
g62
(dp4628
sg71
g4472
sg64
(lp4629
g57
(g4187
g59
NtRp4630
(dp4631
g62
(dp4632
g4191
S'http://stores.lulu.com/web2py'
p4633
ssg71
g4626
sg64
(lp4634
g4111
(S's\r\x00\x00\x00Buy this book'
tRp4635
asbasbasbasbag57
(g4193
g59
NtRp4636
(dp4637
g62
(dp4638
g4197
g4198
ssg71
g4220
sg64
(lp4639
g57
(g4187
g59
NtRp4640
(dp4641
g62
(dp4642
S'_onclick'
p4643
S'javascript:void(0);return false;'
p4644
sg4191
S'#'
ssg71
g4636
sg64
(lp4645
g4111
(S's\t\x00\x00\x00Community'
tRp4646
asbag57
(g4199
g59
NtRp4647
(dp4648
g62
(dp4649
g4197
g4207
ssg71
g4636
sg64
(lp4650
g57
(g4193
g59
NtRp4651
(dp4652
g62
(dp4653
sg71
g4647
sg64
(lp4654
g57
(g4187
g59
NtRp4655
(dp4656
g62
(dp4657
g4191
S'http://www.web2py.com/examples/default/usergroups'
p4658
ssg71
g4651
sg64
(lp4659
g4111
(S's\x06\x00\x00\x00Groups'
tRp4660
asbasbag57
(g4193
g59
NtRp4661
(dp4662
g62
(dp4663
sg71
g4647
sg64
(lp4664
g57
(g4187
g59
NtRp4665
(dp4666
g62
(dp4667
g4191
S'http://twitter.com/web2py'
p4668
ssg71
g4661
sg64
(lp4669
g4111
(S's\x07\x00\x00\x00Twitter'
tRp4670
asbasbag57
(g4193
g59
NtRp4671
(dp4672
g62
(dp4673
sg71
g4647
sg64
(lp4674
g57
(g4187
g59
NtRp4675
(dp4676
g62
(dp4677
g4191
S'http://webchat.freenode.net/?channels=web2py'
p4678
ssg71
g4671
sg64
(lp4679
g4111
(S's\t\x00\x00\x00Live Chat'
tRp4680
asbasbasbasbag57
(g4193
g59
NtRp4681
(dp4682
g62
(dp4683
g4197
g4198
ssg71
g4220
sg64
(lp4684
g57
(g4187
g59
NtRp4685
(dp4686
g62
(dp4687
g4643
g4644
sg4191
S'#'
ssg71
g4681
sg64
(lp4688
g4111
(S's\x07\x00\x00\x00Plugins'
tRp4689
asbag57
(g4199
g59
NtRp4690
(dp4691
g62
(dp4692
g4197
g4207
ssg71
g4681
sg64
(lp4693
g57
(g4193
g59
NtRp4694
(dp4695
g62
(dp4696
sg71
g4690
sg64
(lp4697
g57
(g4187
g59
NtRp4698
(dp4699
g62
(dp4700
g4191
S'http://web2py.com/examples/default/download'
p4701
ssg71
g4694
sg64
(lp4702
S'plugin_wiki'
p4703
asbasbag57
(g4193
g59
NtRp4704
(dp4705
g62
(dp4706
sg71
g4690
sg64
(lp4707
g57
(g4187
g59
NtRp4708
(dp4709
g62
(dp4710
g4191
g4429
ssg71
g4704
sg64
(lp4711
g4111
(S's\r\x00\x00\x00Other Plugins'
tRp4712
asbasbag57
(g4193
g59
NtRp4713
(dp4714
g62
(dp4715
sg71
g4690
sg64
(lp4716
g57
(g4187
g59
NtRp4717
(dp4718
g62
(dp4719
g4191
g4439
ssg71
g4713
sg64
(lp4720
g4111
(S's\x0e\x00\x00\x00Layout Plugins'
tRp4721
asbasbasbasbasbasbsg64
(lp4722
g4183
asbsg64
(lp4723
g4057
asbasbasbasbag57
(g73
g59
NtRp4724
(dp4725
g62
(dp4726
sg71
g4166
sg64
(lp4727
g57
(g78
g59
NtRp4728
(dp4729
g62
(dp4730
sg71
g4724
sg64
(lp4731
g57
(g58
g59
NtRp4732
(dp4733
g62
(dp4734
g70
I3
ssg71
g4728
sg64
(lp4735
g100
asbasbasbag57
(g73
g59
NtRp4736
(dp4737
g62
(dp4738
sg71
g4166
sg64
(lp4739
g57
(g78
g59
NtRp4740
(dp4741
g62
(dp4742
sg71
g4736
sg64
(lp4743
g57
(g58
g59
NtRp4744
(dp4745
g62
(dp4746
g70
I3
ssg71
g4740
sg64
(lp4747
g4192
asbasbasbag57
(g73
g59
NtRp4748
(dp4749
g62
(dp4750
sg71
g4166
sg64
(lp4751
g57
(g78
g59
NtRp4752
(dp4753
g62
(dp4754
sg71
g4748
sg64
(lp4755
g57
(g58
g59
NtRp4756
(dp4757
g62
(dp4758
g70
I3
ssg71
g4752
sg64
(lp4759
g57
(g66
g59
NtRp4760
(dp4761
g62
(dp4762
g70
I2
ssg71
Nsg64
(lp4763
g57
(g73
g59
NtRp4764
(dp4765
g62
(dp4766
sg71
g4760
sg64
(lp4767
g57
(g78
g59
NtRp4768
(dp4769
g62
(dp4770
sg71
g4764
sg64
(lp4771
g57
(g58
g59
NtRp4772
(dp4773
g62
(dp4774
g70
I2
ssg71
g4768
sg64
(lp4775
g57
(g66
g59
NtRp4776
(dp4777
g62
(dp4778
g70
I1
ssg71
Nsg64
(lp4779
g57
(g73
g59
NtRp4780
(dp4781
g62
(dp4782
sg71
g4776
sg64
(lp4783
g57
(g78
g59
NtRp4784
(dp4785
g62
(dp4786
sg71
g4780
sg64
(lp4787
g57
(g58
g59
NtRp4788
(dp4789
g62
(dp4790
g70
I1
ssg71
g4784
sg64
(lp4791
g4233
asbasbasbag57
(g73
g59
NtRp4792
(dp4793
g62
(dp4794
sg71
g4776
sg64
(lp4795
g57
(g78
g59
NtRp4796
(dp4797
g62
(dp4798
sg71
g4792
sg64
(lp4799
g57
(g58
g59
NtRp4800
(dp4801
g62
(dp4802
g70
I1
ssg71
g4796
sg64
(lp4803
I00
asbasbasbag57
(g73
g59
NtRp4804
(dp4805
g62
(dp4806
sg71
g4776
sg64
(lp4807
g57
(g78
g59
NtRp4808
(dp4809
g62
(dp4810
sg71
g4804
sg64
(lp4811
g57
(g58
g59
NtRp4812
(dp4813
g62
(dp4814
g70
I1
ssg71
g4808
sg64
(lp4815
g4231
asbasbasbasbasbasbasbag57
(g73
g59
NtRp4816
(dp4817
g62
(dp4818
sg71
g4760
sg64
(lp4819
g57
(g78
g59
NtRp4820
(dp4821
g62
(dp4822
sg71
g4816
sg64
(lp4823
g57
(g58
g59
NtRp4824
(dp4825
g62
(dp4826
g70
I2
ssg71
g4820
sg64
(lp4827
g57
(g66
g59
NtRp4828
(dp4829
g62
(dp4830
g70
I1
ssg71
Nsg64
(lp4831
g57
(g73
g59
NtRp4832
(dp4833
g62
(dp4834
sg71
g4828
sg64
(lp4835
g57
(g78
g59
NtRp4836
(dp4837
g62
(dp4838
sg71
g4832
sg64
(lp4839
g57
(g58
g59
NtRp4840
(dp4841
g62
(dp4842
g70
I1
ssg71
g4836
sg64
(lp4843
g4243
asbasbasbag57
(g73
g59
NtRp4844
(dp4845
g62
(dp4846
sg71
g4828
sg64
(lp4847
g57
(g78
g59
NtRp4848
(dp4849
g62
(dp4850
sg71
g4844
sg64
(lp4851
g57
(g58
g59
NtRp4852
(dp4853
g62
(dp4854
g70
I1
ssg71
g4848
sg64
(lp4855
I00
asbasbasbag57
(g73
g59
NtRp4856
(dp4857
g62
(dp4858
sg71
g4828
sg64
(lp4859
g57
(g78
g59
NtRp4860
(dp4861
g62
(dp4862
sg71
g4856
sg64
(lp4863
g57
(g58
g59
NtRp4864
(dp4865
g62
(dp4866
g70
I1
ssg71
g4860
sg64
(lp4867
g4241
asbasbasbag57
(g73
g59
NtRp4868
(dp4869
g62
(dp4870
sg71
g4828
sg64
(lp4871
g57
(g78
g59
NtRp4872
(dp4873
g62
(dp4874
sg71
g4868
sg64
(lp4875
g57
(g58
g59
NtRp4876
(dp4877
g62
(dp4878
g70
I1
ssg71
g4872
sg64
(lp4879
(lp4880
(g4257
I00
g4255
tp4881
a(g4267
I00
g4265
tp4882
a(g4277
I00
g4275
tp4883
a(g4287
I00
g4285
tp4884
a(g4297
I00
g4295
tp4885
a(g4307
I00
g4305
tp4886
a(g4317
I00
g4315
tp4887
a(g4327
I00
g4325
tp4888
a(g4337
I00
g4335
tp4889
aasbasbasbasbasbasbasbag57
(g73
g59
NtRp4890
(dp4891
g62
(dp4892
sg71
g4760
sg64
(lp4893
g57
(g78
g59
NtRp4894
(dp4895
g62
(dp4896
sg71
g4890
sg64
(lp4897
g57
(g58
g59
NtRp4898
(dp4899
g62
(dp4900
g70
I2
ssg71
g4894
sg64
(lp4901
g57
(g66
g59
NtRp4902
(dp4903
g62
(dp4904
g70
I1
ssg71
Nsg64
(lp4905
g57
(g73
g59
NtRp4906
(dp4907
g62
(dp4908
sg71
g4902
sg64
(lp4909
g57
(g78
g59
NtRp4910
(dp4911
g62
(dp4912
sg71
g4906
sg64
(lp4913
g57
(g58
g59
NtRp4914
(dp4915
g62
(dp4916
g70
I1
ssg71
g4910
sg64
(lp4917
g4347
asbasbasbag57
(g73
g59
NtRp4918
(dp4919
g62
(dp4920
sg71
g4902
sg64
(lp4921
g57
(g78
g59
NtRp4922
(dp4923
g62
(dp4924
sg71
g4918
sg64
(lp4925
g57
(g58
g59
NtRp4926
(dp4927
g62
(dp4928
g70
I1
ssg71
g4922
sg64
(lp4929
I00
asbasbasbag57
(g73
g59
NtRp4930
(dp4931
g62
(dp4932
sg71
g4902
sg64
(lp4933
g57
(g78
g59
NtRp4934
(dp4935
g62
(dp4936
sg71
g4930
sg64
(lp4937
g57
(g58
g59
NtRp4938
(dp4939
g62
(dp4940
g70
I1
ssg71
g4934
sg64
(lp4941
g4345
asbasbasbag57
(g73
g59
NtRp4942
(dp4943
g62
(dp4944
sg71
g4902
sg64
(lp4945
g57
(g78
g59
NtRp4946
(dp4947
g62
(dp4948
sg71
g4942
sg64
(lp4949
g57
(g58
g59
NtRp4950
(dp4951
g62
(dp4952
g70
I1
ssg71
g4946
sg64
(lp4953
(lp4954
(g4361
I00
g4359
tp4955
a(g4371
I00
g4369
tp4956
a(g4381
I00
g4379
tp4957
a(g4391
I00
g4389
tp4958
a(g4401
I00
g4399
tp4959
a(g4411
I00
g4409
tp4960
a(g4421
I00
g4419
tp4961
a(g4431
I00
g4429
tp4962
a(g4441
I00
g4439
tp4963
a(g4451
I00
g4449
tp4964
a(g4461
I00
g4459
tp4965
aasbasbasbasbasbasbasbag57
(g73
g59
NtRp4966
(dp4967
g62
(dp4968
sg71
g4760
sg64
(lp4969
g57
(g78
g59
NtRp4970
(dp4971
g62
(dp4972
sg71
g4966
sg64
(lp4973
g57
(g58
g59
NtRp4974
(dp4975
g62
(dp4976
g70
I2
ssg71
g4970
sg64
(lp4977
g57
(g66
g59
NtRp4978
(dp4979
g62
(dp4980
g70
I1
ssg71
Nsg64
(lp4981
g57
(g73
g59
NtRp4982
(dp4983
g62
(dp4984
sg71
g4978
sg64
(lp4985
g57
(g78
g59
NtRp4986
(dp4987
g62
(dp4988
sg71
g4982
sg64
(lp4989
g57
(g58
g59
NtRp4990
(dp4991
g62
(dp4992
g70
I1
ssg71
g4986
sg64
(lp4993
g4471
asbasbasbag57
(g73
g59
NtRp4994
(dp4995
g62
(dp4996
sg71
g4978
sg64
(lp4997
g57
(g78
g59
NtRp4998
(dp4999
g62
(dp5000
sg71
g4994
sg64
(lp5001
g57
(g58
g59
NtRp5002
(dp5003
g62
(dp5004
g70
I1
ssg71
g4998
sg64
(lp5005
I00
asbasbasbag57
(g73
g59
NtRp5006
(dp5007
g62
(dp5008
sg71
g4978
sg64
(lp5009
g57
(g78
g59
NtRp5010
(dp5011
g62
(dp5012
sg71
g5006
sg64
(lp5013
g57
(g58
g59
NtRp5014
(dp5015
g62
(dp5016
g70
I1
ssg71
g5010
sg64
(lp5017
g4469
asbasbasbag57
(g73
g59
NtRp5018
(dp5019
g62
(dp5020
sg71
g4978
sg64
(lp5021
g57
(g78
g59
NtRp5022
(dp5023
g62
(dp5024
sg71
g5018
sg64
(lp5025
g57
(g58
g59
NtRp5026
(dp5027
g62
(dp5028
g70
I1
ssg71
g5022
sg64
(lp5029
(lp5030
(g4485
I00
g4483
tp5031
a(g4495
I00
g4493
tp5032
a(g4505
I00
g4503
tp5033
a(g4515
I00
g4513
tp5034
a(g4525
I00
g4523
tp5035
a(g4535
I00
g4533
tp5036
a(g4545
I00
g4543
tp5037
a(g4555
I00
g4553
tp5038
a(g4565
I00
g4563
tp5039
a(g4575
I00
g4573
tp5040
a(g4585
I00
g4583
tp5041
a(g4595
I00
g4593
tp5042
a(g4605
I00
g4603
tp5043
a(g4615
I00
g4613
tp5044
a(g4625
I00
g4623
tp5045
a(g4635
I00
g4633
tp5046
aasbasbasbasbasbasbasbag57
(g73
g59
NtRp5047
(dp5048
g62
(dp5049
sg71
g4760
sg64
(lp5050
g57
(g78
g59
NtRp5051
(dp5052
g62
(dp5053
sg71
g5047
sg64
(lp5054
g57
(g58
g59
NtRp5055
(dp5056
g62
(dp5057
g70
I2
ssg71
g5051
sg64
(lp5058
g57
(g66
g59
NtRp5059
(dp5060
g62
(dp5061
g70
I1
ssg71
Nsg64
(lp5062
g57
(g73
g59
NtRp5063
(dp5064
g62
(dp5065
sg71
g5059
sg64
(lp5066
g57
(g78
g59
NtRp5067
(dp5068
g62
(dp5069
sg71
g5063
sg64
(lp5070
g57
(g58
g59
NtRp5071
(dp5072
g62
(dp5073
g70
I1
ssg71
g5067
sg64
(lp5074
g4646
asbasbasbag57
(g73
g59
NtRp5075
(dp5076
g62
(dp5077
sg71
g5059
sg64
(lp5078
g57
(g78
g59
NtRp5079
(dp5080
g62
(dp5081
sg71
g5075
sg64
(lp5082
g57
(g58
g59
NtRp5083
(dp5084
g62
(dp5085
g70
I1
ssg71
g5079
sg64
(lp5086
I00
asbasbasbag57
(g73
g59
NtRp5087
(dp5088
g62
(dp5089
sg71
g5059
sg64
(lp5090
g57
(g78
g59
NtRp5091
(dp5092
g62
(dp5093
sg71
g5087
sg64
(lp5094
g57
(g58
g59
NtRp5095
(dp5096
g62
(dp5097
g70
I1
ssg71
g5091
sg64
(lp5098
Nasbasbasbag57
(g73
g59
NtRp5099
(dp5100
g62
(dp5101
sg71
g5059
sg64
(lp5102
g57
(g78
g59
NtRp5103
(dp5104
g62
(dp5105
sg71
g5099
sg64
(lp5106
g57
(g58
g59
NtRp5107
(dp5108
g62
(dp5109
g70
I1
ssg71
g5103
sg64
(lp5110
(lp5111
(g4660
I00
g4658
tp5112
a(g4670
I00
g4668
tp5113
a(g4680
I00
g4678
tp5114
aasbasbasbasbasbasbasbag57
(g73
g59
NtRp5115
(dp5116
g62
(dp5117
sg71
g4760
sg64
(lp5118
g57
(g78
g59
NtRp5119
(dp5120
g62
(dp5121
sg71
g5115
sg64
(lp5122
g57
(g58
g59
NtRp5123
(dp5124
g62
(dp5125
g70
I2
ssg71
g5119
sg64
(lp5126
g57
(g66
g59
NtRp5127
(dp5128
g62
(dp5129
g70
I1
ssg71
Nsg64
(lp5130
g57
(g73
g59
NtRp5131
(dp5132
g62
(dp5133
sg71
g5127
sg64
(lp5134
g57
(g78
g59
NtRp5135
(dp5136
g62
(dp5137
sg71
g5131
sg64
(lp5138
g57
(g58
g59
NtRp5139
(dp5140
g62
(dp5141
g70
I1
ssg71
g5135
sg64
(lp5142
g4689
asbasbasbag57
(g73
g59
NtRp5143
(dp5144
g62
(dp5145
sg71
g5127
sg64
(lp5146
g57
(g78
g59
NtRp5147
(dp5148
g62
(dp5149
sg71
g5143
sg64
(lp5150
g57
(g58
g59
NtRp5151
(dp5152
g62
(dp5153
g70
I1
ssg71
g5147
sg64
(lp5154
I00
asbasbasbag57
(g73
g59
NtRp5155
(dp5156
g62
(dp5157
sg71
g5127
sg64
(lp5158
g57
(g78
g59
NtRp5159
(dp5160
g62
(dp5161
sg71
g5155
sg64
(lp5162
g57
(g58
g59
NtRp5163
(dp5164
g62
(dp5165
g70
I1
ssg71
g5159
sg64
(lp5166
Nasbasbasbag57
(g73
g59
NtRp5167
(dp5168
g62
(dp5169
sg71
g5127
sg64
(lp5170
g57
(g78
g59
NtRp5171
(dp5172
g62
(dp5173
sg71
g5167
sg64
(lp5174
g57
(g58
g59
NtRp5175
(dp5176
g62
(dp5177
g70
I1
ssg71
g5171
sg64
(lp5178
(lp5179
(g4703
I00
g4701
tp5180
a(g4712
I00
g4429
tp5181
a(g4721
I00
g4439
tp5182
aasbasbasbasbasbasbasbasbasbasbasbasbasbasbasbasbasbasbasbag57
(g73
g59
NtRp5183
(dp5184
g62
(dp5185
sg71
g3517
sg64
(lp5186
g57
(g78
g59
NtRp5187
(dp5188
g62
(dp5189
g82
g83
ssg71
g5183
sg64
(lp5190
S'meta'
p5191
asbag57
(g78
g59
NtRp5192
(dp5193
g62
(dp5194
g89
g90
ssg71
g5183
sg64
(lp5195
S':'
asbag57
(g78
g59
NtRp5196
(dp5197
g62
(dp5198
sg71
g5183
sg64
(lp5199
g57
(g58
g59
NtRp5200
(dp5201
g62
(dp5202
g70
I5
ssg71
g5196
sg64
(lp5203
g57
(g66
g59
NtRp5204
(dp5205
g62
(dp5206
g70
I4
ssg71
Nsg64
(lp5207
g57
(g73
g59
NtRp5208
(dp5209
g62
(dp5210
sg71
g5204
sg64
(lp5211
g57
(g78
g59
NtRp5212
(dp5213
g62
(dp5214
g82
g83
ssg71
g5208
sg64
(lp5215
S'author'
p5216
asbag57
(g78
g59
NtRp5217
(dp5218
g62
(dp5219
g89
g90
ssg71
g5208
sg64
(lp5220
S':'
asbag57
(g78
g59
NtRp5221
(dp5222
g62
(dp5223
sg71
g5208
sg64
(lp5224
g57
(g58
g59
NtRp5225
(dp5226
g62
(dp5227
g70
I4
ssg71
g5221
sg64
(lp5228
S'Your Name <you@example.com>'
p5229
asbasbasbag57
(g73
g59
NtRp5230
(dp5231
g62
(dp5232
sg71
g5204
sg64
(lp5233
g57
(g78
g59
NtRp5234
(dp5235
g62
(dp5236
g82
g83
ssg71
g5230
sg64
(lp5237
S'description'
p5238
asbag57
(g78
g59
NtRp5239
(dp5240
g62
(dp5241
g89
g90
ssg71
g5230
sg64
(lp5242
S':'
asbag57
(g78
g59
NtRp5243
(dp5244
g62
(dp5245
sg71
g5230
sg64
(lp5246
g57
(g58
g59
NtRp5247
(dp5248
g62
(dp5249
g70
I4
ssg71
g5243
sg64
(lp5250
S'a cool new app'
p5251
asbasbasbag57
(g73
g59
NtRp5252
(dp5253
g62
(dp5254
sg71
g5204
sg64
(lp5255
g57
(g78
g59
NtRp5256
(dp5257
g62
(dp5258
g82
g83
ssg71
g5252
sg64
(lp5259
S'generator'
p5260
asbag57
(g78
g59
NtRp5261
(dp5262
g62
(dp5263
g89
g90
ssg71
g5252
sg64
(lp5264
S':'
asbag57
(g78
g59
NtRp5265
(dp5266
g62
(dp5267
sg71
g5252
sg64
(lp5268
g57
(g58
g59
NtRp5269
(dp5270
g62
(dp5271
g70
I4
ssg71
g5265
sg64
(lp5272
S'Web2py Web Framework'
p5273
asbasbasbag57
(g73
g59
NtRp5274
(dp5275
g62
(dp5276
sg71
g5204
sg64
(lp5277
g57
(g78
g59
NtRp5278
(dp5279
g62
(dp5280
g82
g83
ssg71
g5274
sg64
(lp5281
S'keywords'
p5282
asbag57
(g78
g59
NtRp5283
(dp5284
g62
(dp5285
g89
g90
ssg71
g5274
sg64
(lp5286
S':'
asbag57
(g78
g59
NtRp5287
(dp5288
g62
(dp5289
sg71
g5274
sg64
(lp5290
g57
(g58
g59
NtRp5291
(dp5292
g62
(dp5293
g70
I4
ssg71
g5287
sg64
(lp5294
S'web2py, python, framework'
p5295
asbasbasbasbasbasbasbag57
(g73
g59
NtRp5296
(dp5297
g62
(dp5298
sg71
g3517
sg64
(lp5299
g57
(g78
g59
NtRp5300
(dp5301
g62
(dp5302
g82
g83
ssg71
g5296
sg64
(lp5303
S'models_to_run'
p5304
asbag57
(g78
g59
NtRp5305
(dp5306
g62
(dp5307
g89
g90
ssg71
g5296
sg64
(lp5308
S':'
asbag57
(g78
g59
NtRp5309
(dp5310
g62
(dp5311
sg71
g5296
sg64
(lp5312
g57
(g58
g59
NtRp5313
(dp5314
g62
(dp5315
g70
I5
ssg71
g5309
sg64
(lp5316
g57
(g66
g59
NtRp5317
(dp5318
g62
(dp5319
g70
I4
ssg71
Nsg64
(lp5320
g57
(g73
g59
NtRp5321
(dp5322
g62
(dp5323
sg71
g5317
sg64
(lp5324
g57
(g78
g59
NtRp5325
(dp5326
g62
(dp5327
sg71
g5321
sg64
(lp5328
g57
(g58
g59
NtRp5329
(dp5330
g62
(dp5331
g70
I4
ssg71
g5325
sg64
(lp5332
S'^\\w+\\.py$'
p5333
asbasbasbag57
(g73
g59
NtRp5334
(dp5335
g62
(dp5336
sg71
g5317
sg64
(lp5337
g57
(g78
g59
NtRp5338
(dp5339
g62
(dp5340
sg71
g5334
sg64
(lp5341
g57
(g58
g59
NtRp5342
(dp5343
g62
(dp5344
g70
I4
ssg71
g5338
sg64
(lp5345
S'^default/\\w+\\.py$'
p5346
asbasbasbag57
(g73
g59
NtRp5347
(dp5348
g62
(dp5349
sg71
g5317
sg64
(lp5350
g57
(g78
g59
NtRp5351
(dp5352
g62
(dp5353
sg71
g5347
sg64
(lp5354
g57
(g58
g59
NtRp5355
(dp5356
g62
(dp5357
g70
I4
ssg71
g5351
sg64
(lp5358
S'^default/wall/\\w+\\.py$'
p5359
asbasbasbasbasbasbasbag57
(g73
g59
NtRp5360
(dp5361
g62
(dp5362
sg71
g3517
sg64
(lp5363
g57
(g78
g59
NtRp5364
(dp5365
g62
(dp5366
g82
g83
ssg71
g5360
sg64
(lp5367
S'postprocessing'
p5368
asbag57
(g78
g59
NtRp5369
(dp5370
g62
(dp5371
g89
g90
ssg71
g5360
sg64
(lp5372
S':'
asbag57
(g78
g59
NtRp5373
(dp5374
g62
(dp5375
sg71
g5360
sg64
(lp5376
g57
(g58
g59
NtRp5377
(dp5378
g62
(dp5379
g70
I5
ssg71
g5373
sg64
(lp5380
g57
(g66
g59
NtRp5381
(dp5382
g62
(dp5383
g70
I4
ssg71
Nsg64
(lp5384
sbasbasbasbag57
(g73
g59
NtRp5385
(dp5386
g62
(dp5387
sg71
g3517
sg64
(lp5388
g57
(g78
g59
NtRp5389
(dp5390
g62
(dp5391
g82
g83
ssg71
g5385
sg64
(lp5392
S'session_file'
p5393
asbag57
(g78
g59
NtRp5394
(dp5395
g62
(dp5396
g89
g90
ssg71
g5385
sg64
(lp5397
S':'
asbag57
(g78
g59
NtRp5398
(dp5399
g62
(dp5400
sg71
g5385
sg64
(lp5401
g57
(g58
g59
NtRp5402
(dp5403
g62
(dp5404
g70
I5
ssg71
g5398
sg64
(lp5405
S"<open file '/home/alumno/Escritorio/web2py/applications/miFacebook/sessions/127.0.0.1-b6b45cf0-6bef-4835-b080-b2fa7ac26fc0', mode 'rb+' at 0x7ff998800810>"
p5406
asbasbasbag57
(g73
g59
NtRp5407
(dp5408
g62
(dp5409
sg71
g3517
sg64
(lp5410
g57
(g78
g59
NtRp5411
(dp5412
g62
(dp5413
g82
g83
ssg71
g5407
sg64
(lp5414
S'session_filename'
p5415
asbag57
(g78
g59
NtRp5416
(dp5417
g62
(dp5418
g89
g90
ssg71
g5407
sg64
(lp5419
S':'
asbag57
(g78
g59
NtRp5420
(dp5421
g62
(dp5422
sg71
g5407
sg64
(lp5423
g57
(g58
g59
NtRp5424
(dp5425
g62
(dp5426
g70
I5
ssg71
g5420
sg64
(lp5427
S'/home/alumno/Escritorio/web2py/applications/miFacebook/sessions/127.0.0.1-b6b45cf0-6bef-4835-b080-b2fa7ac26fc0'
p5428
asbasbasbag57
(g73
g59
NtRp5429
(dp5430
g62
(dp5431
sg71
g3517
sg64
(lp5432
g57
(g78
g59
NtRp5433
(dp5434
g62
(dp5435
g82
g83
ssg71
g5429
sg64
(lp5436
S'session_id'
p5437
asbag57
(g78
g59
NtRp5438
(dp5439
g62
(dp5440
g89
g90
ssg71
g5429
sg64
(lp5441
S':'
asbag57
(g78
g59
NtRp5442
(dp5443
g62
(dp5444
sg71
g5429
sg64
(lp5445
g57
(g58
g59
NtRp5446
(dp5447
g62
(dp5448
g70
I5
ssg71
g5442
sg64
(lp5449
g475
asbasbasbag57
(g73
g59
NtRp5450
(dp5451
g62
(dp5452
sg71
g3517
sg64
(lp5453
g57
(g78
g59
NtRp5454
(dp5455
g62
(dp5456
g82
g83
ssg71
g5450
sg64
(lp5457
S'session_id_name'
p5458
asbag57
(g78
g59
NtRp5459
(dp5460
g62
(dp5461
g89
g90
ssg71
g5450
sg64
(lp5462
S':'
asbag57
(g78
g59
NtRp5463
(dp5464
g62
(dp5465
sg71
g5450
sg64
(lp5466
g57
(g58
g59
NtRp5467
(dp5468
g62
(dp5469
g70
I5
ssg71
g5463
sg64
(lp5470
g3574
asbasbasbag57
(g73
g59
NtRp5471
(dp5472
g62
(dp5473
sg71
g3517
sg64
(lp5474
g57
(g78
g59
NtRp5475
(dp5476
g62
(dp5477
g82
g83
ssg71
g5471
sg64
(lp5478
S'session_locked'
p5479
asbag57
(g78
g59
NtRp5480
(dp5481
g62
(dp5482
g89
g90
ssg71
g5471
sg64
(lp5483
S':'
asbag57
(g78
g59
NtRp5484
(dp5485
g62
(dp5486
sg71
g5471
sg64
(lp5487
g57
(g58
g59
NtRp5488
(dp5489
g62
(dp5490
g70
I5
ssg71
g5484
sg64
(lp5491
g1701
asbasbasbag57
(g73
g59
NtRp5492
(dp5493
g62
(dp5494
sg71
g3517
sg64
(lp5495
g57
(g78
g59
NtRp5496
(dp5497
g62
(dp5498
g82
g83
ssg71
g5492
sg64
(lp5499
S'session_new'
p5500
asbag57
(g78
g59
NtRp5501
(dp5502
g62
(dp5503
g89
g90
ssg71
g5492
sg64
(lp5504
S':'
asbag57
(g78
g59
NtRp5505
(dp5506
g62
(dp5507
sg71
g5492
sg64
(lp5508
g57
(g58
g59
NtRp5509
(dp5510
g62
(dp5511
g70
I5
ssg71
g5505
sg64
(lp5512
g100
asbasbasbag57
(g73
g59
NtRp5513
(dp5514
g62
(dp5515
sg71
g3517
sg64
(lp5516
g57
(g78
g59
NtRp5517
(dp5518
g62
(dp5519
g82
g83
ssg71
g5513
sg64
(lp5520
S'status'
p5521
asbag57
(g78
g59
NtRp5522
(dp5523
g62
(dp5524
g89
g90
ssg71
g5513
sg64
(lp5525
S':'
asbag57
(g78
g59
NtRp5526
(dp5527
g62
(dp5528
sg71
g5513
sg64
(lp5529
g57
(g58
g59
NtRp5530
(dp5531
g62
(dp5532
g70
I5
ssg71
g5526
sg64
(lp5533
S'200'
p5534
asbasbasbag57
(g73
g59
NtRp5535
(dp5536
g62
(dp5537
sg71
g3517
sg64
(lp5538
g57
(g78
g59
NtRp5539
(dp5540
g62
(dp5541
g82
g83
ssg71
g5535
sg64
(lp5542
S'subtitle'
p5543
asbag57
(g78
g59
NtRp5544
(dp5545
g62
(dp5546
g89
g90
ssg71
g5535
sg64
(lp5547
S':'
asbag57
(g78
g59
NtRp5548
(dp5549
g62
(dp5550
sg71
g5535
sg64
(lp5551
g57
(g58
g59
NtRp5552
(dp5553
g62
(dp5554
g70
I5
ssg71
g5548
sg64
(lp5555
g4111
(S's\t\x00\x00\x00Adaptame!'
tRp5556
asbasbasbag57
(g73
g59
NtRp5557
(dp5558
g62
(dp5559
sg71
g3517
sg64
(lp5560
g57
(g78
g59
NtRp5561
(dp5562
g62
(dp5563
g82
g83
ssg71
g5557
sg64
(lp5564
S'title'
p5565
asbag57
(g78
g59
NtRp5566
(dp5567
g62
(dp5568
g89
g90
ssg71
g5557
sg64
(lp5569
S':'
asbag57
(g78
g59
NtRp5570
(dp5571
g62
(dp5572
sg71
g5557
sg64
(lp5573
g57
(g58
g59
NtRp5574
(dp5575
g62
(dp5576
g70
I5
ssg71
g5570
sg64
(lp5577
S'Mifacebook'
p5578
asbasbasbag57
(g73
g59
NtRp5579
(dp5580
g62
(dp5581
sg71
g3517
sg64
(lp5582
g57
(g78
g59
NtRp5583
(dp5584
g62
(dp5585
g82
g83
ssg71
g5579
sg64
(lp5586
S'view'
p5587
asbag57
(g78
g59
NtRp5588
(dp5589
g62
(dp5590
g89
g90
ssg71
g5579
sg64
(lp5591
S':'
asbag57
(g78
g59
NtRp5592
(dp5593
g62
(dp5594
sg71
g5579
sg64
(lp5595
g57
(g58
g59
NtRp5596
(dp5597
g62
(dp5598
g70
I5
ssg71
g5592
sg64
(lp5599
S'default/wall.html'
p5600
asbasbasbasbasbsS'locals'
p5601
(dp5602
S'Service'
p5603
S"<class 'gluon.tools.Service'>"
p5604
sS'myfriends'
p5605
S"<Set ((link.source = 1) AND (link.accepted = 'T'))>"
p5606
sS'OBJECT'
p5607
S"<class 'gluon.html.OBJECT'>"
p5608
sS'SQLDB'
p5609
S"<class 'gluon.dal.DAL'>"
p5610
sg3122
S"<Storage {'_formkey[auth_group/create]': '6e92bb...ister]': '088a75e7-27ec-4d18-870f-a6abccfee20a'}>"
p5611
sS'LINK'
p5612
S"<class 'gluon.html.LINK'>"
p5613
sS'BR'
p5614
S"<class 'gluon.html.BR'>"
p5615
sS'local_import'
p5616
S'<function <lambda>>'
p5617
sS'OPTGROUP'
p5618
S"<class 'gluon.html.OPTGROUP'>"
p5619
sS'__package__'
p5620
S'None'
p5621
sS'PRE'
p5622
S"<class 'gluon.html.PRE'>"
p5623
sS'IS_INT_IN_RANGE'
p5624
S"<class 'gluon.validators.IS_INT_IN_RANGE'>"
p5625
sS'alphabetical'
p5626
S'<gluon.dal.Expression object>'
p5627
sS'left_sidebar_enabled'
p5628
g100
sS'IS_LOWER'
p5629
S"<class 'gluon.validators.IS_LOWER'>"
p5630
sS'IS_STRONG'
p5631
S"<class 'gluon.validators.IS_STRONG'>"
p5632
sS'cache'
p5633
S'<gluon.cache.Cache object>'
p5634
sS'IS_IN_DB'
p5635
S"<class 'gluon.validators.IS_IN_DB'>"
p5636
sS'TAG'
p5637
S'<gluon.html.__TAG__ object>'
p5638
sS'SQLField'
p5639
S"<class 'gluon.dal.Field'>"
p5640
sS'mail'
p5641
S'<gluon.tools.Mail object>'
p5642
sS'BODY'
p5643
S"<class 'gluon.html.BODY'>"
p5644
sS'IS_DATE_IN_RANGE'
p5645
S"<class 'gluon.validators.IS_DATE_IN_RANGE'>"
p5646
sS'TH'
p5647
S"<class 'gluon.html.TH'>"
p5648
sS'URL'
p5649
S'<function URL>'
p5650
sS'__file__'
p5651
S"'/home/alumno/Escritorio/web2py/applications/miFacebook/views/default/wall.html'"
p5652
sS'db'
p5653
S'<DAL sqlite://storage.sqlite>'
p5654
sS'auth'
p5655
S'<gluon.tools.Auth object>'
p5656
sS'P'
S"<class 'gluon.html.P'>"
p5657
sS'TFOOT'
p5658
S"<class 'gluon.html.TFOOT'>"
p5659
sS'XHTML'
p5660
S"<class 'gluon.html.XHTML'>"
p5661
sS'ON'
p5662
g1701
sS'OL'
p5663
S"<class 'gluon.html.OL'>"
p5664
sS'TEXTAREA'
p5665
S"<class 'gluon.html.TEXTAREA'>"
p5666
sS'MENU'
p5667
S"<class 'gluon.html.MENU'>"
p5668
sS'posts'
p5669
S'<Rows (2)>'
p5670
sS'IS_IMAGE'
p5671
S"<class 'gluon.validators.IS_IMAGE'>"
p5672
sS'LOAD'
p5673
S'<function LOAD>'
p5674
sS'CODE'
p5675
S"<class 'gluon.html.CODE'>"
p5676
sS'HTTP'
p5677
S"<class 'gluon.http.HTTP'>"
p5678
sS'HR'
p5679
S"<class 'gluon.html.HR'>"
p5680
sS'IS_DATETIME'
p5681
S"<class 'gluon.validators.IS_DATETIME'>"
p5682
sS'HEAD'
p5683
S"<class 'gluon.html.HEAD'>"
p5684
sS'LABEL'
p5685
S"<class 'gluon.html.LABEL'>"
p5686
sS'META'
p5687
S"<class 'gluon.html.META'>"
p5688
sS'plugins'
p5689
S'<gluon.tools.PluginManager object>'
p5690
sS'SELECT'
p5691
S"<class 'gluon.html.SELECT'>"
p5692
sS'use_janrain'
p5693
S'<function use_janrain>'
p5694
sS'CENTER'
p5695
S"<class 'gluon.html.CENTER'>"
p5696
sS'prettydate'
p5697
S'<function prettydate>'
p5698
sS'Crud'
p5699
S"<class 'gluon.tools.Crud'>"
p5700
sS'Auth'
p5701
S"<class 'gluon.tools.Auth'>"
p5702
sS'IS_EQUAL_TO'
p5703
S"<class 'gluon.validators.IS_EQUAL_TO'>"
p5704
sS'HTML'
p5705
S"<class 'gluon.html.HTML'>"
p5706
sS'Link'
p5707
S'<Table link (id,source,target,accepted)>'
p5708
sS'SQLFORM'
p5709
S"<class 'gluon.sqlhtml.SQLFORM'>"
p5710
sS'EM'
p5711
S"<class 'gluon.html.EM'>"
p5712
sS'redirect'
p5713
S'<function redirect>'
p5714
sS'FIELDSET'
p5715
S"<class 'gluon.html.FIELDSET'>"
p5716
sS'__builtins__'
p5717
S"{'ArithmeticError': <type 'exceptions.ArithmeticError'>, 'AssertionError': <type 'exceptions.AssertionError'>, 'AttributeError': <type 'exceptions.AttributeError'>, 'BaseException': <type 'exceptions.BaseException'>, 'BufferError': <type 'exceptions.BufferError'>, 'BytesWarning': <type 'exceptions.BytesWarning'>, 'DeprecationWarning': <type 'exceptions.DeprecationWarning'>, 'EOFError': <type 'exceptions.EOFError'>, 'Ellipsis': Ellipsis, 'EnvironmentError': <type 'exceptions.EnvironmentError'>, ...}"
p5718
sS'embed64'
p5719
S'<function embed64>'
p5720
sS'IS_LIST_OF'
p5721
S"<class 'gluon.validators.IS_LIST_OF'>"
p5722
sS'INPUT'
p5723
S"<class 'gluon.html.INPUT'>"
p5724
sS'EMBED'
p5725
S"<class 'gluon.html.EMBED'>"
p5726
sS'_'
S'<function _>'
p5727
sS'a0'
p5728
S'None'
p5729
sS'H2'
p5730
S"<class 'gluon.html.H2'>"
p5731
sS'H3'
p5732
S"<class 'gluon.html.H3'>"
p5733
sS'BUTTON'
p5734
S"<class 'gluon.html.BUTTON'>"
p5735
sS'H1'
p5736
S"<class 'gluon.html.H1'>"
p5737
sS'H6'
p5738
S"<class 'gluon.html.H6'>"
p5739
sS'H4'
p5740
S"<class 'gluon.html.H4'>"
p5741
sS'H5'
p5742
S"<class 'gluon.html.H5'>"
p5743
sS'UL'
p5744
S"<class 'gluon.html.UL'>"
p5745
sS'IS_UPPER'
p5746
S"<class 'gluon.validators.IS_UPPER'>"
p5747
sS'xmlescape'
p5748
S'<function xmlescape>'
p5749
sS'IS_TIME'
p5750
S"<class 'gluon.validators.IS_TIME'>"
p5751
sS'OPTION'
p5752
S"<class 'gluon.html.OPTION'>"
p5753
sS'TITLE'
p5754
S"<class 'gluon.html.TITLE'>"
p5755
sS'CRYPT'
p5756
S"<class 'gluon.validators.CRYPT'>"
p5757
sS'IS_EMPTY_OR'
p5758
S"<class 'gluon.validators.IS_EMPTY_OR'>"
p5759
sS'MARKMIN'
p5760
S"<class 'gluon.html.MARKMIN'>"
p5761
sS'__name__'
p5762
S"'__restricted__'"
p5763
sS'STRONG'
p5764
S"<class 'gluon.html.STRONG'>"
p5765
sS'COL'
p5766
S"<class 'gluon.html.COL'>"
p5767
sS'service'
p5768
S'<gluon.tools.Service object>'
p5769
sS'SCRIPT'
p5770
S"<class 'gluon.html.SCRIPT'>"
p5771
sS'name_of'
p5772
S'<function name_of>'
p5773
sS'is_mobile'
p5774
g100
sS'User'
p5775
S'<Table auth_user (id,first_name,last_name,email,...stration_key,reset_password_key,registration_id)>'
p5776
sS'TABLE'
p5777
S"<class 'gluon.html.TABLE'>"
p5778
sS'Post'
p5779
S'<Table post (id,body,posted_on,posted_by)>'
p5780
sS'IS_IPV4'
p5781
S"<class 'gluon.validators.IS_IPV4'>"
p5782
sS'IS_LENGTH'
p5783
S"<class 'gluon.validators.IS_LENGTH'>"
p5784
sS'XML'
p5785
S"<class 'gluon.html.XML'>"
p5786
sS'B'
S"<class 'gluon.html.B'>"
p5787
sS'IMG'
p5788
S"<class 'gluon.html.IMG'>"
p5789
sS'SQLTABLE'
p5790
S"<class 'gluon.sqlhtml.SQLTABLE'>"
p5791
sS'IS_MATCH'
p5792
S"<class 'gluon.validators.IS_MATCH'>"
p5793
sS'IS_ALPHANUMERIC'
p5794
S"<class 'gluon.validators.IS_ALPHANUMERIC'>"
p5795
sS'me'
p5796
S'1'
sS'SPAN'
p5797
S"<class 'gluon.html.SPAN'>"
p5798
sS'IS_SLUG'
p5799
S"<class 'gluon.validators.IS_SLUG'>"
p5800
sS'CLEANUP'
p5801
S"<class 'gluon.validators.CLEANUP'>"
p5802
sS'IS_DATE'
p5803
S"<class 'gluon.validators.IS_DATE'>"
p5804
sS'IS_EMAIL'
p5805
S"<class 'gluon.validators.IS_EMAIL'>"
p5806
sS'IS_NOT_EMPTY'
p5807
S"<class 'gluon.validators.IS_NOT_EMPTY'>"
p5808
sg56
S"<Storage {'function': 'wall', 'body': <cStringIO...cations/miFacebook/', 'post_vars': <Storage {}>}>"
p5809
sS'BEAUTIFY'
p5810
S"<class 'gluon.html.BEAUTIFY'>"
p5811
sS'TBODY'
p5812
S"<class 'gluon.html.TBODY'>"
p5813
sS'CAT'
p5814
S"<class 'gluon.html.CAT'>"
p5815
sS'Field'
p5816
S"<class 'gluon.dal.Field'>"
p5817
sS'middle_columns'
p5818
S"'span12'"
p5819
sS'DIV'
p5820
S"<class 'gluon.html.DIV'>"
p5821
sS'LEGEND'
p5822
S"<class 'gluon.html.LEGEND'>"
p5823
sS'COLGROUP'
p5824
S"<class 'gluon.html.COLGROUP'>"
p5825
sS'DAL'
p5826
S"<class 'gluon.dal.DAL'>"
p5827
sS'TT'
p5828
S"<class 'gluon.html.TT'>"
p5829
sS'TR'
p5830
S"<class 'gluon.html.TR'>"
p5831
sS'LI'
p5832
S"<class 'gluon.html.LI'>"
p5833
sS'right_sidebar_enabled'
p5834
g100
sS'IFRAME'
p5835
S"<class 'gluon.html.IFRAME'>"
p5836
sS'TD'
p5837
S"<class 'gluon.html.TD'>"
p5838
sS'PluginManager'
p5839
S"<class 'gluon.tools.PluginManager'>"
p5840
sS'IS_URL'
p5841
S"<class 'gluon.validators.IS_URL'>"
p5842
sS'A'
S"<class 'gluon.html.A'>"
p5843
sS'STYLE'
p5844
S"<class 'gluon.html.STYLE'>"
p5845
sS'IS_DATETIME_IN_RANGE'
p5846
S"<class 'gluon.validators.IS_DATETIME_IN_RANGE'>"
p5847
sS'FORM'
p5848
S"<class 'gluon.html.FORM'>"
p5849
sS'I'
S"<class 'gluon.html.I'>"
p5850
sS'crud'
p5851
S'<gluon.tools.Crud object>'
p5852
sS'a1'
p5853
S'None'
p5854
sS'IS_NOT_IN_DB'
p5855
S"<class 'gluon.validators.IS_NOT_IN_DB'>"
p5856
sS'user'
p5857
S"<Row {'auth_event': <Set (auth_event.user_id = 1...uon.dal.RecordDeleter object at 0x7ff99c1b2f90>}>"
p5858
sg3512
S"<Storage {'body': <cStringIO.StringO object at 0...at 0x7ff99c1ab6e0>, 'view': 'default/wall.html'}>"
p5859
sS'THEAD'
p5860
S"<class 'gluon.html.THEAD'>"
p5861
sS'IS_NULL_OR'
p5862
S"<class 'gluon.validators.IS_EMPTY_OR'>"
p5863
sS'IS_FLOAT_IN_RANGE'
p5864
S"<class 'gluon.validators.IS_FLOAT_IN_RANGE'>"
p5865
sS'IS_EXPR'
p5866
S"<class 'gluon.validators.IS_EXPR'>"
p5867
sS'T'
S'<gluon.languages.translator object>'
p5868
sS'IS_IN_SET'
p5869
S"<class 'gluon.validators.IS_IN_SET'>"
p5870
sS'IS_UPLOAD_FILENAME'
p5871
S"<class 'gluon.validators.IS_UPLOAD_FILENAME'>"
p5872
sS'IS_DECIMAL_IN_RANGE'
p5873
S"<class 'gluon.validators.IS_DECIMAL_IN_RANGE'>"
p5874
sssS'traceback'
p5875
S'Traceback (most recent call last):\n  File "/home/alumno/Escritorio/web2py/gluon/restricted.py", line 209, in restricted\n    exec ccode in environment\n  File "/home/alumno/Escritorio/web2py/applications/miFacebook/views/default/wall.html", line 79, in <module>\nNameError: name \'Profile\' is not defined\n'
p5876
s.