(dp1
S'output'
p2
S"<type 'exceptions.IndentationError'> unexpected indent (default.py, line 115)"
p3
sS'layer'
p4
S'/Applications/web2py.app/Contents/Resources/applications/miFacebook/controllers/default.py'
p5
sS'code'
p6
S'# -*- coding: utf-8 -*-\n# this file is released under public domain and you can use without limitations\n\n#########################################################################\n## This is a samples controller\n## - index is the default action of any application\n## - user is required for authentication and authorization\n## - download is for downloading files uploaded in the db (does streaming)\n## - call exposes all registered services (none by default)\n#########################################################################\n\ndef index():\n    \'\'\'\n    redirecci\xc3\xb3n si el usuario est\xc3\xa1 autentificado \n    \'\'\'\n    if auth.user:\n        redirect(URL(\'home\'))\n    return locals()\n\ndef user():\n    """\n    exposes:\n    http://..../[app]/default/user/login\n    http://..../[app]/default/user/logout\n    http://..../[app]/default/user/register\n    http://..../[app]/default/user/profile\n    http://..../[app]/default/user/retrieve_password\n    http://..../[app]/default/user/change_password\n    use @auth.requires_login()\n        @auth.requires_membership(\'group name\')\n        @auth.requires_permission(\'read\',\'table name\',record_id)\n    to decorate functions that need access control\n    """\n    return dict(form=auth())\n\n\ndef download():\n    """\n    allows downloading of uploaded files\n    http://..../[app]/default/download/[filename]\n    """\n    return response.download(request,db)\n\n\ndef call():\n    """\n    exposes services. for example:\n    http://..../[app]/default/call/jsonrpc\n    decorate with @services.jsonrpc the functions to expose\n    supports xml, json, xmlrpc, jsonrpc, amfrpc, rss, csv\n    """\n    session.forget()\n    return service()\n\n\n@auth.requires_signature()\ndef data():\n    """\n    http://..../[app]/default/data/tables\n    http://..../[app]/default/data/create/[table]\n    http://..../[app]/default/data/read/[table]/[id]\n    http://..../[app]/default/data/update/[table]/[id]\n    http://..../[app]/default/data/delete/[table]/[id]\n    http://..../[app]/default/data/select/[table]\n    http://..../[app]/default/data/search/[table]\n    but URLs must be signed, i.e. linked with\n      A(\'table\',_href=URL(\'data/tables\',user_signature=True))\n    or with the signed load operator\n      LOAD(\'default\',\'data.load\',args=\'tables\',ajax=True,user_signature=True)\n    """\n    return dict(form=crud())\n\n@auth.requires_login()\ndef home():\n    Post.posted_by.default = me\n    Post.posted_on.default = request.now\n    crud.settings.formstyle = "table2cols"\n    form = crud.create(Post)\n    friends = [me] + [row.target for row in myfriends.select(Link.target)]\n    posts = db(Post.posted_by.belongs(friends)).select(orderby=~Post.posted_on,\n        limitby=(0,100))\n    return locals()\n    \n@auth.requires_login()\ndef wall():\n    user = User(a0 or me)\n    if not user or not (user.id==me or myfriends(Link.target == user.id).count()):\n        redirect(URL(\'home\'))\n    posts = db(Post.posted_by == user.id).select(orderby=~Post.posted_on, limitby=(0,100))\n    return locals()\n\n\n@auth.requires_login()\ndef search():\n    form = SQLFORM.factory(Field(\'name\', requires = IS_NOT_EMPTY()))\n    if form.accepts(request):\n        tokens = form.vars.name.split()\n        query = reduce(lambda a,b: a&b, [User.first_name.contains(k) | User.last_name.contains(k) \\\n        for k in tokens])\n        people = db(query).select(orderby = alphabetical)\n    else:\n        people = []\n    return locals()\n\n@auth.requires_login()\ndef friends():\n    friends = db(User.id==Link.source)(Link.target==me).select(orderby=alphabetical)\n    requests = db(User.id==Link.target)(Link.source==me).select(orderby=alphabetical)\n    \n    return locals()\n\n@auth.requires_login()\ndef friendship():\n  """Ajax callback!"""\n    if request.env.request_method != \'POST\': raise HTTP(400)\n    if a0==\'request\' and not Link(source=a1, target=me):\n        # insert a new friendship request\n        Link.insert(source=me, target=a1)\n    elif a0==\'accept\':\n        # accept an existing friendship request\n        db(Link.target==me)(Link.source==a1).update(accepted=True)\n    if not db(Link.source==me)(Link.target==a1).count():\n        Link.insert(source=me, target=a1)\n    elif a0==\'deny\':\n        # deny an existing friendship request\n        db(Link.target==me)(Link.source==a1).delete()\n    elif a0==\'remove\':\n        # delete a previous friendship request\n        db(Link.source==me)(Link.target==a1).delete()\n\nresponse._vars=response._caller(friends)\n'
p7
sS'snapshot'
p8
(dp9
S'exception'
p10
(dp11
S'__getslice__'
p12
S"<method-wrapper '__getslice__' of exceptions.IndentationError object at 0x908ac30>"
p13
sS'text'
p14
S'"    if request.env.request_method != \'POST\': raise HTTP(400)\\n"'
p15
sS'__str__'
p16
S"<method-wrapper '__str__' of exceptions.IndentationError object at 0x908ac30>"
p17
sS'__reduce__'
p18
S'<built-in method __reduce__ of exceptions.IndentationError object at 0x908ac30>'
p19
sS'__dict__'
p20
S'{}'
p21
sS'__init__'
p22
S"<method-wrapper '__init__' of exceptions.IndentationError object at 0x908ac30>"
p23
sS'__setattr__'
p24
S"<method-wrapper '__setattr__' of exceptions.IndentationError object at 0x908ac30>"
p25
sS'__reduce_ex__'
p26
S'<built-in method __reduce_ex__ of exceptions.IndentationError object at 0x908ac30>'
p27
sS'__new__'
p28
S'<built-in method __new__ of type object at 0x20f9260>'
p29
sS'__class__'
p30
S"<type 'exceptions.IndentationError'>"
p31
sS'filename'
p32
S"'/Applications/web2py.app/Contents/Resources/applications/miFacebook/controllers/default.py'"
p33
sS'lineno'
p34
S'115'
p35
sS'msg'
p36
S"'unexpected indent'"
p37
sS'__doc__'
p38
S"'Improper indentation.'"
p39
sS'__getitem__'
p40
S"<method-wrapper '__getitem__' of exceptions.IndentationError object at 0x908ac30>"
p41
sS'__setstate__'
p42
S'<built-in method __setstate__ of exceptions.IndentationError object at 0x908ac30>'
p43
sS'__getattribute__'
p44
S"<method-wrapper '__getattribute__' of exceptions.IndentationError object at 0x908ac30>"
p45
sS'print_file_and_line'
p46
S'None'
p47
sS'args'
p48
S'(\'unexpected indent\', (\'/Applications/web2py.app/Contents/Resources/applications/miFacebook/controllers/default.py\', 115, 4, "    if request.env.request_method != \'POST\': raise HTTP(400)\\n"))'
p49
sS'offset'
p50
S'4'
sS'__delattr__'
p51
S"<method-wrapper '__delattr__' of exceptions.IndentationError object at 0x908ac30>"
p52
sS'__repr__'
p53
S"<method-wrapper '__repr__' of exceptions.IndentationError object at 0x908ac30>"
p54
sS'__hash__'
p55
S"<method-wrapper '__hash__' of exceptions.IndentationError object at 0x908ac30>"
p56
ssS'evalue'
p57
S'unexpected indent (default.py, line 115)'
p58
sS'request'
p59
ccopy_reg
_reconstructor
p60
(cgluon.html
BEAUTIFY
p61
c__builtin__
object
p62
NtRp63
(dp64
S'attributes'
p65
(dp66
sS'components'
p67
(lp68
g60
(cgluon.html
TABLE
p69
g62
NtRp70
(dp71
g65
(dp72
S'level'
p73
I5
ssS'parent'
p74
Nsg67
(lp75
g60
(cgluon.html
TR
p76
g62
NtRp77
(dp78
g65
(dp79
sg74
g70
sg67
(lp80
g60
(cgluon.html
TD
p81
g62
NtRp82
(dp83
g65
(dp84
S'_style'
p85
S'font-weight:bold;vertical-align:top'
p86
ssg74
g77
sg67
(lp87
S'ajax'
p88
asbag60
(g81
g62
NtRp89
(dp90
g65
(dp91
S'_valign'
p92
S'top'
p93
ssg74
g77
sg67
(lp94
S':'
asbag60
(g81
g62
NtRp95
(dp96
g65
(dp97
sg74
g77
sg67
(lp98
g60
(g61
g62
NtRp99
(dp100
g65
(dp101
g73
I5
ssg74
g95
sg67
(lp102
S'False'
p103
asbasbasbag60
(g76
g62
NtRp104
(dp105
g65
(dp106
sg74
g70
sg67
(lp107
g60
(g81
g62
NtRp108
(dp109
g65
(dp110
g85
g86
ssg74
g104
sg67
(lp111
S'application'
p112
asbag60
(g81
g62
NtRp113
(dp114
g65
(dp115
g92
g93
ssg74
g104
sg67
(lp116
S':'
asbag60
(g81
g62
NtRp117
(dp118
g65
(dp119
sg74
g104
sg67
(lp120
g60
(g61
g62
NtRp121
(dp122
g65
(dp123
g73
I5
ssg74
g117
sg67
(lp124
S'miFacebook'
p125
asbasbasbag60
(g76
g62
NtRp126
(dp127
g65
(dp128
sg74
g70
sg67
(lp129
g60
(g81
g62
NtRp130
(dp131
g65
(dp132
g85
g86
ssg74
g126
sg67
(lp133
g48
asbag60
(g81
g62
NtRp134
(dp135
g65
(dp136
g92
g93
ssg74
g126
sg67
(lp137
S':'
asbag60
(g81
g62
NtRp138
(dp139
g65
(dp140
sg74
g126
sg67
(lp141
g60
(g61
g62
NtRp142
(dp143
g65
(dp144
g73
I5
ssg74
g138
sg67
(lp145
g60
(g69
g62
NtRp146
(dp147
g65
(dp148
g73
I4
ssg74
Nsg67
(lp149
sbasbasbasbag60
(g76
g62
NtRp150
(dp151
g65
(dp152
sg74
g70
sg67
(lp153
g60
(g81
g62
NtRp154
(dp155
g65
(dp156
g85
g86
ssg74
g150
sg67
(lp157
S'body'
p158
asbag60
(g81
g62
NtRp159
(dp160
g65
(dp161
g92
g93
ssg74
g150
sg67
(lp162
S':'
asbag60
(g81
g62
NtRp163
(dp164
g65
(dp165
sg74
g150
sg67
(lp166
g60
(g61
g62
NtRp167
(dp168
g65
(dp169
g73
I5
ssg74
g163
sg67
(lp170
S'<cStringIO.StringO object at 0xa63e5e0>'
p171
asbasbasbag60
(g76
g62
NtRp172
(dp173
g65
(dp174
sg74
g70
sg67
(lp175
g60
(g81
g62
NtRp176
(dp177
g65
(dp178
g85
g86
ssg74
g172
sg67
(lp179
S'cid'
p180
asbag60
(g81
g62
NtRp181
(dp182
g65
(dp183
g92
g93
ssg74
g172
sg67
(lp184
S':'
asbag60
(g81
g62
NtRp185
(dp186
g65
(dp187
sg74
g172
sg67
(lp188
g60
(g61
g62
NtRp189
(dp190
g65
(dp191
g73
I5
ssg74
g185
sg67
(lp192
S'None'
p193
asbasbasbag60
(g76
g62
NtRp194
(dp195
g65
(dp196
sg74
g70
sg67
(lp197
g60
(g81
g62
NtRp198
(dp199
g65
(dp200
g85
g86
ssg74
g194
sg67
(lp201
S'client'
p202
asbag60
(g81
g62
NtRp203
(dp204
g65
(dp205
g92
g93
ssg74
g194
sg67
(lp206
S':'
asbag60
(g81
g62
NtRp207
(dp208
g65
(dp209
sg74
g194
sg67
(lp210
g60
(g61
g62
NtRp211
(dp212
g65
(dp213
g73
I5
ssg74
g207
sg67
(lp214
S'127.0.0.1'
p215
asbasbasbag60
(g76
g62
NtRp216
(dp217
g65
(dp218
sg74
g70
sg67
(lp219
g60
(g81
g62
NtRp220
(dp221
g65
(dp222
g85
g86
ssg74
g216
sg67
(lp223
S'controller'
p224
asbag60
(g81
g62
NtRp225
(dp226
g65
(dp227
g92
g93
ssg74
g216
sg67
(lp228
S':'
asbag60
(g81
g62
NtRp229
(dp230
g65
(dp231
sg74
g216
sg67
(lp232
g60
(g61
g62
NtRp233
(dp234
g65
(dp235
g73
I5
ssg74
g229
sg67
(lp236
S'default'
p237
asbasbasbag60
(g76
g62
NtRp238
(dp239
g65
(dp240
sg74
g70
sg67
(lp241
g60
(g81
g62
NtRp242
(dp243
g65
(dp244
g85
g86
ssg74
g238
sg67
(lp245
S'cookies'
p246
asbag60
(g81
g62
NtRp247
(dp248
g65
(dp249
g92
g93
ssg74
g238
sg67
(lp250
S':'
asbag60
(g81
g62
NtRp251
(dp252
g65
(dp253
sg74
g238
sg67
(lp254
g60
(g61
g62
NtRp255
(dp256
g65
(dp257
g73
I5
ssg74
g251
sg67
(lp258
g60
(g69
g62
NtRp259
(dp260
g65
(dp261
g73
I4
ssg74
Nsg67
(lp262
g60
(g76
g62
NtRp263
(dp264
g65
(dp265
sg74
g259
sg67
(lp266
g60
(g81
g62
NtRp267
(dp268
g65
(dp269
g85
g86
ssg74
g263
sg67
(lp270
S'session_id_admin'
p271
asbag60
(g81
g62
NtRp272
(dp273
g65
(dp274
g92
g93
ssg74
g263
sg67
(lp275
S':'
asbag60
(g81
g62
NtRp276
(dp277
g65
(dp278
sg74
g263
sg67
(lp279
g60
(g61
g62
NtRp280
(dp281
g65
(dp282
g73
I4
ssg74
g276
sg67
(lp283
S'127.0.0.1-a9f3a8b4-34a5-483c-9aa9-3d500e71f00c'
p284
ag60
(g69
g62
NtRp285
(dp286
g65
(dp287
g73
I3
ssg74
Nsg67
(lp288
g60
(g76
g62
NtRp289
(dp290
g65
(dp291
sg74
g285
sg67
(lp292
g60
(g81
g62
NtRp293
(dp294
g65
(dp295
g85
g86
ssg74
g289
sg67
(lp296
S'comment'
p297
asbag60
(g81
g62
NtRp298
(dp299
g65
(dp300
g92
g93
ssg74
g289
sg67
(lp301
S':'
asbag60
(g81
g62
NtRp302
(dp303
g65
(dp304
sg74
g289
sg67
(lp305
g60
(g61
g62
NtRp306
(dp307
g65
(dp308
g73
I3
ssg74
g302
sg67
(lp309
S''
asbasbasbag60
(g76
g62
NtRp310
(dp311
g65
(dp312
sg74
g285
sg67
(lp313
g60
(g81
g62
NtRp314
(dp315
g65
(dp316
g85
g86
ssg74
g310
sg67
(lp317
S'domain'
p318
asbag60
(g81
g62
NtRp319
(dp320
g65
(dp321
g92
g93
ssg74
g310
sg67
(lp322
S':'
asbag60
(g81
g62
NtRp323
(dp324
g65
(dp325
sg74
g310
sg67
(lp326
g60
(g61
g62
NtRp327
(dp328
g65
(dp329
g73
I3
ssg74
g323
sg67
(lp330
S''
asbasbasbag60
(g76
g62
NtRp331
(dp332
g65
(dp333
sg74
g285
sg67
(lp334
g60
(g81
g62
NtRp335
(dp336
g65
(dp337
g85
g86
ssg74
g331
sg67
(lp338
S'expires'
p339
asbag60
(g81
g62
NtRp340
(dp341
g65
(dp342
g92
g93
ssg74
g331
sg67
(lp343
S':'
asbag60
(g81
g62
NtRp344
(dp345
g65
(dp346
sg74
g331
sg67
(lp347
g60
(g61
g62
NtRp348
(dp349
g65
(dp350
g73
I3
ssg74
g344
sg67
(lp351
S''
asbasbasbag60
(g76
g62
NtRp352
(dp353
g65
(dp354
sg74
g285
sg67
(lp355
g60
(g81
g62
NtRp356
(dp357
g65
(dp358
g85
g86
ssg74
g352
sg67
(lp359
S'max-age'
p360
asbag60
(g81
g62
NtRp361
(dp362
g65
(dp363
g92
g93
ssg74
g352
sg67
(lp364
S':'
asbag60
(g81
g62
NtRp365
(dp366
g65
(dp367
sg74
g352
sg67
(lp368
g60
(g61
g62
NtRp369
(dp370
g65
(dp371
g73
I3
ssg74
g365
sg67
(lp372
S''
asbasbasbag60
(g76
g62
NtRp373
(dp374
g65
(dp375
sg74
g285
sg67
(lp376
g60
(g81
g62
NtRp377
(dp378
g65
(dp379
g85
g86
ssg74
g373
sg67
(lp380
S'path'
p381
asbag60
(g81
g62
NtRp382
(dp383
g65
(dp384
g92
g93
ssg74
g373
sg67
(lp385
S':'
asbag60
(g81
g62
NtRp386
(dp387
g65
(dp388
sg74
g373
sg67
(lp389
g60
(g61
g62
NtRp390
(dp391
g65
(dp392
g73
I3
ssg74
g386
sg67
(lp393
S''
asbasbasbag60
(g76
g62
NtRp394
(dp395
g65
(dp396
sg74
g285
sg67
(lp397
g60
(g81
g62
NtRp398
(dp399
g65
(dp400
g85
g86
ssg74
g394
sg67
(lp401
S'secure'
p402
asbag60
(g81
g62
NtRp403
(dp404
g65
(dp405
g92
g93
ssg74
g394
sg67
(lp406
S':'
asbag60
(g81
g62
NtRp407
(dp408
g65
(dp409
sg74
g394
sg67
(lp410
g60
(g61
g62
NtRp411
(dp412
g65
(dp413
g73
I3
ssg74
g407
sg67
(lp414
S''
asbasbasbag60
(g76
g62
NtRp415
(dp416
g65
(dp417
sg74
g285
sg67
(lp418
g60
(g81
g62
NtRp419
(dp420
g65
(dp421
g85
g86
ssg74
g415
sg67
(lp422
S'version'
p423
asbag60
(g81
g62
NtRp424
(dp425
g65
(dp426
g92
g93
ssg74
g415
sg67
(lp427
S':'
asbag60
(g81
g62
NtRp428
(dp429
g65
(dp430
sg74
g415
sg67
(lp431
g60
(g61
g62
NtRp432
(dp433
g65
(dp434
g73
I3
ssg74
g428
sg67
(lp435
S''
asbasbasbasbasbasbasbag60
(g76
g62
NtRp436
(dp437
g65
(dp438
sg74
g259
sg67
(lp439
g60
(g81
g62
NtRp440
(dp441
g65
(dp442
g85
g86
ssg74
g436
sg67
(lp443
S'session_id_mifacebook'
p444
asbag60
(g81
g62
NtRp445
(dp446
g65
(dp447
g92
g93
ssg74
g436
sg67
(lp448
S':'
asbag60
(g81
g62
NtRp449
(dp450
g65
(dp451
sg74
g436
sg67
(lp452
g60
(g61
g62
NtRp453
(dp454
g65
(dp455
g73
I4
ssg74
g449
sg67
(lp456
S'127.0.0.1-05de177b-62db-48b0-aa89-2aa07a9430e3'
p457
ag60
(g69
g62
NtRp458
(dp459
g65
(dp460
g73
I3
ssg74
Nsg67
(lp461
g60
(g76
g62
NtRp462
(dp463
g65
(dp464
sg74
g458
sg67
(lp465
g60
(g81
g62
NtRp466
(dp467
g65
(dp468
g85
g86
ssg74
g462
sg67
(lp469
g297
asbag60
(g81
g62
NtRp470
(dp471
g65
(dp472
g92
g93
ssg74
g462
sg67
(lp473
S':'
asbag60
(g81
g62
NtRp474
(dp475
g65
(dp476
sg74
g462
sg67
(lp477
g60
(g61
g62
NtRp478
(dp479
g65
(dp480
g73
I3
ssg74
g474
sg67
(lp481
S''
asbasbasbag60
(g76
g62
NtRp482
(dp483
g65
(dp484
sg74
g458
sg67
(lp485
g60
(g81
g62
NtRp486
(dp487
g65
(dp488
g85
g86
ssg74
g482
sg67
(lp489
g318
asbag60
(g81
g62
NtRp490
(dp491
g65
(dp492
g92
g93
ssg74
g482
sg67
(lp493
S':'
asbag60
(g81
g62
NtRp494
(dp495
g65
(dp496
sg74
g482
sg67
(lp497
g60
(g61
g62
NtRp498
(dp499
g65
(dp500
g73
I3
ssg74
g494
sg67
(lp501
S''
asbasbasbag60
(g76
g62
NtRp502
(dp503
g65
(dp504
sg74
g458
sg67
(lp505
g60
(g81
g62
NtRp506
(dp507
g65
(dp508
g85
g86
ssg74
g502
sg67
(lp509
g339
asbag60
(g81
g62
NtRp510
(dp511
g65
(dp512
g92
g93
ssg74
g502
sg67
(lp513
S':'
asbag60
(g81
g62
NtRp514
(dp515
g65
(dp516
sg74
g502
sg67
(lp517
g60
(g61
g62
NtRp518
(dp519
g65
(dp520
g73
I3
ssg74
g514
sg67
(lp521
S''
asbasbasbag60
(g76
g62
NtRp522
(dp523
g65
(dp524
sg74
g458
sg67
(lp525
g60
(g81
g62
NtRp526
(dp527
g65
(dp528
g85
g86
ssg74
g522
sg67
(lp529
g360
asbag60
(g81
g62
NtRp530
(dp531
g65
(dp532
g92
g93
ssg74
g522
sg67
(lp533
S':'
asbag60
(g81
g62
NtRp534
(dp535
g65
(dp536
sg74
g522
sg67
(lp537
g60
(g61
g62
NtRp538
(dp539
g65
(dp540
g73
I3
ssg74
g534
sg67
(lp541
S''
asbasbasbag60
(g76
g62
NtRp542
(dp543
g65
(dp544
sg74
g458
sg67
(lp545
g60
(g81
g62
NtRp546
(dp547
g65
(dp548
g85
g86
ssg74
g542
sg67
(lp549
g381
asbag60
(g81
g62
NtRp550
(dp551
g65
(dp552
g92
g93
ssg74
g542
sg67
(lp553
S':'
asbag60
(g81
g62
NtRp554
(dp555
g65
(dp556
sg74
g542
sg67
(lp557
g60
(g61
g62
NtRp558
(dp559
g65
(dp560
g73
I3
ssg74
g554
sg67
(lp561
S''
asbasbasbag60
(g76
g62
NtRp562
(dp563
g65
(dp564
sg74
g458
sg67
(lp565
g60
(g81
g62
NtRp566
(dp567
g65
(dp568
g85
g86
ssg74
g562
sg67
(lp569
g402
asbag60
(g81
g62
NtRp570
(dp571
g65
(dp572
g92
g93
ssg74
g562
sg67
(lp573
S':'
asbag60
(g81
g62
NtRp574
(dp575
g65
(dp576
sg74
g562
sg67
(lp577
g60
(g61
g62
NtRp578
(dp579
g65
(dp580
g73
I3
ssg74
g574
sg67
(lp581
S''
asbasbasbag60
(g76
g62
NtRp582
(dp583
g65
(dp584
sg74
g458
sg67
(lp585
g60
(g81
g62
NtRp586
(dp587
g65
(dp588
g85
g86
ssg74
g582
sg67
(lp589
g423
asbag60
(g81
g62
NtRp590
(dp591
g65
(dp592
g92
g93
ssg74
g582
sg67
(lp593
S':'
asbag60
(g81
g62
NtRp594
(dp595
g65
(dp596
sg74
g582
sg67
(lp597
g60
(g61
g62
NtRp598
(dp599
g65
(dp600
g73
I3
ssg74
g594
sg67
(lp601
S''
asbasbasbasbasbasbasbag60
(g76
g62
NtRp602
(dp603
g65
(dp604
sg74
g259
sg67
(lp605
g60
(g81
g62
NtRp606
(dp607
g65
(dp608
g85
g86
ssg74
g602
sg67
(lp609
S'session_id_ticketealo'
p610
asbag60
(g81
g62
NtRp611
(dp612
g65
(dp613
g92
g93
ssg74
g602
sg67
(lp614
S':'
asbag60
(g81
g62
NtRp615
(dp616
g65
(dp617
sg74
g602
sg67
(lp618
g60
(g61
g62
NtRp619
(dp620
g65
(dp621
g73
I4
ssg74
g615
sg67
(lp622
S'127.0.0.1-ee6b1252-5e9e-4c19-b834-3e24bec5592e'
p623
ag60
(g69
g62
NtRp624
(dp625
g65
(dp626
g73
I3
ssg74
Nsg67
(lp627
g60
(g76
g62
NtRp628
(dp629
g65
(dp630
sg74
g624
sg67
(lp631
g60
(g81
g62
NtRp632
(dp633
g65
(dp634
g85
g86
ssg74
g628
sg67
(lp635
g297
asbag60
(g81
g62
NtRp636
(dp637
g65
(dp638
g92
g93
ssg74
g628
sg67
(lp639
S':'
asbag60
(g81
g62
NtRp640
(dp641
g65
(dp642
sg74
g628
sg67
(lp643
g60
(g61
g62
NtRp644
(dp645
g65
(dp646
g73
I3
ssg74
g640
sg67
(lp647
S''
asbasbasbag60
(g76
g62
NtRp648
(dp649
g65
(dp650
sg74
g624
sg67
(lp651
g60
(g81
g62
NtRp652
(dp653
g65
(dp654
g85
g86
ssg74
g648
sg67
(lp655
g318
asbag60
(g81
g62
NtRp656
(dp657
g65
(dp658
g92
g93
ssg74
g648
sg67
(lp659
S':'
asbag60
(g81
g62
NtRp660
(dp661
g65
(dp662
sg74
g648
sg67
(lp663
g60
(g61
g62
NtRp664
(dp665
g65
(dp666
g73
I3
ssg74
g660
sg67
(lp667
S''
asbasbasbag60
(g76
g62
NtRp668
(dp669
g65
(dp670
sg74
g624
sg67
(lp671
g60
(g81
g62
NtRp672
(dp673
g65
(dp674
g85
g86
ssg74
g668
sg67
(lp675
g339
asbag60
(g81
g62
NtRp676
(dp677
g65
(dp678
g92
g93
ssg74
g668
sg67
(lp679
S':'
asbag60
(g81
g62
NtRp680
(dp681
g65
(dp682
sg74
g668
sg67
(lp683
g60
(g61
g62
NtRp684
(dp685
g65
(dp686
g73
I3
ssg74
g680
sg67
(lp687
S''
asbasbasbag60
(g76
g62
NtRp688
(dp689
g65
(dp690
sg74
g624
sg67
(lp691
g60
(g81
g62
NtRp692
(dp693
g65
(dp694
g85
g86
ssg74
g688
sg67
(lp695
g360
asbag60
(g81
g62
NtRp696
(dp697
g65
(dp698
g92
g93
ssg74
g688
sg67
(lp699
S':'
asbag60
(g81
g62
NtRp700
(dp701
g65
(dp702
sg74
g688
sg67
(lp703
g60
(g61
g62
NtRp704
(dp705
g65
(dp706
g73
I3
ssg74
g700
sg67
(lp707
S''
asbasbasbag60
(g76
g62
NtRp708
(dp709
g65
(dp710
sg74
g624
sg67
(lp711
g60
(g81
g62
NtRp712
(dp713
g65
(dp714
g85
g86
ssg74
g708
sg67
(lp715
g381
asbag60
(g81
g62
NtRp716
(dp717
g65
(dp718
g92
g93
ssg74
g708
sg67
(lp719
S':'
asbag60
(g81
g62
NtRp720
(dp721
g65
(dp722
sg74
g708
sg67
(lp723
g60
(g61
g62
NtRp724
(dp725
g65
(dp726
g73
I3
ssg74
g720
sg67
(lp727
S''
asbasbasbag60
(g76
g62
NtRp728
(dp729
g65
(dp730
sg74
g624
sg67
(lp731
g60
(g81
g62
NtRp732
(dp733
g65
(dp734
g85
g86
ssg74
g728
sg67
(lp735
g402
asbag60
(g81
g62
NtRp736
(dp737
g65
(dp738
g92
g93
ssg74
g728
sg67
(lp739
S':'
asbag60
(g81
g62
NtRp740
(dp741
g65
(dp742
sg74
g728
sg67
(lp743
g60
(g61
g62
NtRp744
(dp745
g65
(dp746
g73
I3
ssg74
g740
sg67
(lp747
S''
asbasbasbag60
(g76
g62
NtRp748
(dp749
g65
(dp750
sg74
g624
sg67
(lp751
g60
(g81
g62
NtRp752
(dp753
g65
(dp754
g85
g86
ssg74
g748
sg67
(lp755
g423
asbag60
(g81
g62
NtRp756
(dp757
g65
(dp758
g92
g93
ssg74
g748
sg67
(lp759
S':'
asbag60
(g81
g62
NtRp760
(dp761
g65
(dp762
sg74
g748
sg67
(lp763
g60
(g61
g62
NtRp764
(dp765
g65
(dp766
g73
I3
ssg74
g760
sg67
(lp767
S''
asbasbasbasbasbasbasbag60
(g76
g62
NtRp768
(dp769
g65
(dp770
sg74
g259
sg67
(lp771
g60
(g81
g62
NtRp772
(dp773
g65
(dp774
g85
g86
ssg74
g768
sg67
(lp775
S'session_id_welcome'
p776
asbag60
(g81
g62
NtRp777
(dp778
g65
(dp779
g92
g93
ssg74
g768
sg67
(lp780
S':'
asbag60
(g81
g62
NtRp781
(dp782
g65
(dp783
sg74
g768
sg67
(lp784
g60
(g61
g62
NtRp785
(dp786
g65
(dp787
g73
I4
ssg74
g781
sg67
(lp788
S'127.0.0.1-fb228a9b-2978-48d8-b012-9dfe4c9f9769'
p789
ag60
(g69
g62
NtRp790
(dp791
g65
(dp792
g73
I3
ssg74
Nsg67
(lp793
g60
(g76
g62
NtRp794
(dp795
g65
(dp796
sg74
g790
sg67
(lp797
g60
(g81
g62
NtRp798
(dp799
g65
(dp800
g85
g86
ssg74
g794
sg67
(lp801
g297
asbag60
(g81
g62
NtRp802
(dp803
g65
(dp804
g92
g93
ssg74
g794
sg67
(lp805
S':'
asbag60
(g81
g62
NtRp806
(dp807
g65
(dp808
sg74
g794
sg67
(lp809
g60
(g61
g62
NtRp810
(dp811
g65
(dp812
g73
I3
ssg74
g806
sg67
(lp813
S''
asbasbasbag60
(g76
g62
NtRp814
(dp815
g65
(dp816
sg74
g790
sg67
(lp817
g60
(g81
g62
NtRp818
(dp819
g65
(dp820
g85
g86
ssg74
g814
sg67
(lp821
g318
asbag60
(g81
g62
NtRp822
(dp823
g65
(dp824
g92
g93
ssg74
g814
sg67
(lp825
S':'
asbag60
(g81
g62
NtRp826
(dp827
g65
(dp828
sg74
g814
sg67
(lp829
g60
(g61
g62
NtRp830
(dp831
g65
(dp832
g73
I3
ssg74
g826
sg67
(lp833
S''
asbasbasbag60
(g76
g62
NtRp834
(dp835
g65
(dp836
sg74
g790
sg67
(lp837
g60
(g81
g62
NtRp838
(dp839
g65
(dp840
g85
g86
ssg74
g834
sg67
(lp841
g339
asbag60
(g81
g62
NtRp842
(dp843
g65
(dp844
g92
g93
ssg74
g834
sg67
(lp845
S':'
asbag60
(g81
g62
NtRp846
(dp847
g65
(dp848
sg74
g834
sg67
(lp849
g60
(g61
g62
NtRp850
(dp851
g65
(dp852
g73
I3
ssg74
g846
sg67
(lp853
S''
asbasbasbag60
(g76
g62
NtRp854
(dp855
g65
(dp856
sg74
g790
sg67
(lp857
g60
(g81
g62
NtRp858
(dp859
g65
(dp860
g85
g86
ssg74
g854
sg67
(lp861
g360
asbag60
(g81
g62
NtRp862
(dp863
g65
(dp864
g92
g93
ssg74
g854
sg67
(lp865
S':'
asbag60
(g81
g62
NtRp866
(dp867
g65
(dp868
sg74
g854
sg67
(lp869
g60
(g61
g62
NtRp870
(dp871
g65
(dp872
g73
I3
ssg74
g866
sg67
(lp873
S''
asbasbasbag60
(g76
g62
NtRp874
(dp875
g65
(dp876
sg74
g790
sg67
(lp877
g60
(g81
g62
NtRp878
(dp879
g65
(dp880
g85
g86
ssg74
g874
sg67
(lp881
g381
asbag60
(g81
g62
NtRp882
(dp883
g65
(dp884
g92
g93
ssg74
g874
sg67
(lp885
S':'
asbag60
(g81
g62
NtRp886
(dp887
g65
(dp888
sg74
g874
sg67
(lp889
g60
(g61
g62
NtRp890
(dp891
g65
(dp892
g73
I3
ssg74
g886
sg67
(lp893
S''
asbasbasbag60
(g76
g62
NtRp894
(dp895
g65
(dp896
sg74
g790
sg67
(lp897
g60
(g81
g62
NtRp898
(dp899
g65
(dp900
g85
g86
ssg74
g894
sg67
(lp901
g402
asbag60
(g81
g62
NtRp902
(dp903
g65
(dp904
g92
g93
ssg74
g894
sg67
(lp905
S':'
asbag60
(g81
g62
NtRp906
(dp907
g65
(dp908
sg74
g894
sg67
(lp909
g60
(g61
g62
NtRp910
(dp911
g65
(dp912
g73
I3
ssg74
g906
sg67
(lp913
S''
asbasbasbag60
(g76
g62
NtRp914
(dp915
g65
(dp916
sg74
g790
sg67
(lp917
g60
(g81
g62
NtRp918
(dp919
g65
(dp920
g85
g86
ssg74
g914
sg67
(lp921
g423
asbag60
(g81
g62
NtRp922
(dp923
g65
(dp924
g92
g93
ssg74
g914
sg67
(lp925
S':'
asbag60
(g81
g62
NtRp926
(dp927
g65
(dp928
sg74
g914
sg67
(lp929
g60
(g61
g62
NtRp930
(dp931
g65
(dp932
g73
I3
ssg74
g926
sg67
(lp933
S''
asbasbasbasbasbasbasbasbasbasbasbag60
(g76
g62
NtRp934
(dp935
g65
(dp936
sg74
g70
sg67
(lp937
g60
(g81
g62
NtRp938
(dp939
g65
(dp940
g85
g86
ssg74
g934
sg67
(lp941
S'env'
p942
asbag60
(g81
g62
NtRp943
(dp944
g65
(dp945
g92
g93
ssg74
g934
sg67
(lp946
S':'
asbag60
(g81
g62
NtRp947
(dp948
g65
(dp949
sg74
g934
sg67
(lp950
g60
(g61
g62
NtRp951
(dp952
g65
(dp953
g73
I5
ssg74
g947
sg67
(lp954
g60
(g69
g62
NtRp955
(dp956
g65
(dp957
g73
I4
ssg74
Nsg67
(lp958
g60
(g76
g62
NtRp959
(dp960
g65
(dp961
sg74
g955
sg67
(lp962
g60
(g81
g62
NtRp963
(dp964
g65
(dp965
g85
g86
ssg74
g959
sg67
(lp966
S'app_folders'
p967
asbag60
(g81
g62
NtRp968
(dp969
g65
(dp970
g92
g93
ssg74
g959
sg67
(lp971
S':'
asbag60
(g81
g62
NtRp972
(dp973
g65
(dp974
sg74
g959
sg67
(lp975
g60
(g61
g62
NtRp976
(dp977
g65
(dp978
g73
I4
ssg74
g972
sg67
(lp979
S"set(['/Applications/web2py.app/Contents/Resources/applications/miFacebook/', '/Applications/web2py.app/Contents/Resources/applications/admin/', '/Applications/web2py.app/Contents/Resources/applications/welcome/', '/Applications/web2py.app/Contents/Resources/applications/ticketealo/'])"
p980
asbasbasbag60
(g76
g62
NtRp981
(dp982
g65
(dp983
sg74
g955
sg67
(lp984
g60
(g81
g62
NtRp985
(dp986
g65
(dp987
g85
g86
ssg74
g981
sg67
(lp988
S'applications_parent'
p989
asbag60
(g81
g62
NtRp990
(dp991
g65
(dp992
g92
g93
ssg74
g981
sg67
(lp993
S':'
asbag60
(g81
g62
NtRp994
(dp995
g65
(dp996
sg74
g981
sg67
(lp997
g60
(g61
g62
NtRp998
(dp999
g65
(dp1000
g73
I4
ssg74
g994
sg67
(lp1001
S'/Applications/web2py.app/Contents/Resources'
p1002
asbasbasbag60
(g76
g62
NtRp1003
(dp1004
g65
(dp1005
sg74
g955
sg67
(lp1006
g60
(g81
g62
NtRp1007
(dp1008
g65
(dp1009
g85
g86
ssg74
g1003
sg67
(lp1010
S'cmd_args'
p1011
asbag60
(g81
g62
NtRp1012
(dp1013
g65
(dp1014
g92
g93
ssg74
g1003
sg67
(lp1015
S':'
asbag60
(g81
g62
NtRp1016
(dp1017
g65
(dp1018
sg74
g1003
sg67
(lp1019
g60
(g61
g62
NtRp1020
(dp1021
g65
(dp1022
g73
I4
ssg74
g1016
sg67
(lp1023
g60
(g69
g62
NtRp1024
(dp1025
g65
(dp1026
g73
I3
ssg74
Nsg67
(lp1027
sbasbasbasbag60
(g76
g62
NtRp1028
(dp1029
g65
(dp1030
sg74
g955
sg67
(lp1031
g60
(g81
g62
NtRp1032
(dp1033
g65
(dp1034
g85
g86
ssg74
g1028
sg67
(lp1035
S'cmd_options'
p1036
asbag60
(g81
g62
NtRp1037
(dp1038
g65
(dp1039
g92
g93
ssg74
g1028
sg67
(lp1040
S':'
asbag60
(g81
g62
NtRp1041
(dp1042
g65
(dp1043
sg74
g1028
sg67
(lp1044
g60
(g61
g62
NtRp1045
(dp1046
g65
(dp1047
g73
I4
ssg74
g1041
sg67
(lp1048
S"<Values at 0x59bd8f0: {'verbose': False, 'ip': '127.0.0.1', 'with_scheduler': False, 'ips': ['172.30.12.190'], 'shutdown_timeout': 5, 'taskbar': False, 'port': 8000, 'maxthreads': None, 'softcron': False, 'server_name': 'MacBook-Pro-de-Alberto.local', 'bpython': False, 'nogui': False, 'nocron': False, 'extcron': False, 'run_system_tests': False, 'test': None, 'folder': '/Applications/web2py.app/Contents/Resources', 'config': '', 'import_models': False, 'winservice': '', 'shell': None, 'run': '', 'log_filename': 'httpserver.log', 'debuglevel': 30, 'args': [''], 'socket_timeout': 5, 'ssl_ca_certificate': None, 'scheduler': None, 'profiler_filename': None, 'ssl_private_key': '', 'scheduler_groups': None, 'password': '<ask>', 'request_queue_size': 5, 'ssl_certificate': '', 'cronjob': False, 'numthreads': None, 'quiet': False, 'interfaces': None, 'minthreads': None, 'timeout': 10, 'plain': False, 'nobanner': False, 'pid_filename': 'httpserver.pid'}>"
p1049
asbasbasbag60
(g76
g62
NtRp1050
(dp1051
g65
(dp1052
sg74
g955
sg67
(lp1053
g60
(g81
g62
NtRp1054
(dp1055
g65
(dp1056
g85
g86
ssg74
g1050
sg67
(lp1057
S'db_sessions'
p1058
asbag60
(g81
g62
NtRp1059
(dp1060
g65
(dp1061
g92
g93
ssg74
g1050
sg67
(lp1062
S':'
asbag60
(g81
g62
NtRp1063
(dp1064
g65
(dp1065
sg74
g1050
sg67
(lp1066
g60
(g61
g62
NtRp1067
(dp1068
g65
(dp1069
g73
I4
ssg74
g1063
sg67
(lp1070
S'set([])'
p1071
asbasbasbag60
(g76
g62
NtRp1072
(dp1073
g65
(dp1074
sg74
g955
sg67
(lp1075
g60
(g81
g62
NtRp1076
(dp1077
g65
(dp1078
g85
g86
ssg74
g1072
sg67
(lp1079
S'debugging'
p1080
asbag60
(g81
g62
NtRp1081
(dp1082
g65
(dp1083
g92
g93
ssg74
g1072
sg67
(lp1084
S':'
asbag60
(g81
g62
NtRp1085
(dp1086
g65
(dp1087
sg74
g1072
sg67
(lp1088
g60
(g61
g62
NtRp1089
(dp1090
g65
(dp1091
g73
I4
ssg74
g1085
sg67
(lp1092
g103
asbasbasbag60
(g76
g62
NtRp1093
(dp1094
g65
(dp1095
sg74
g955
sg67
(lp1096
g60
(g81
g62
NtRp1097
(dp1098
g65
(dp1099
g85
g86
ssg74
g1093
sg67
(lp1100
S'gluon_parent'
p1101
asbag60
(g81
g62
NtRp1102
(dp1103
g65
(dp1104
g92
g93
ssg74
g1093
sg67
(lp1105
S':'
asbag60
(g81
g62
NtRp1106
(dp1107
g65
(dp1108
sg74
g1093
sg67
(lp1109
g60
(g61
g62
NtRp1110
(dp1111
g65
(dp1112
g73
I4
ssg74
g1106
sg67
(lp1113
S'/Applications/web2py.app/Contents/Resources'
p1114
asbasbasbag60
(g76
g62
NtRp1115
(dp1116
g65
(dp1117
sg74
g955
sg67
(lp1118
g60
(g81
g62
NtRp1119
(dp1120
g65
(dp1121
g85
g86
ssg74
g1115
sg67
(lp1122
S'http_accept'
p1123
asbag60
(g81
g62
NtRp1124
(dp1125
g65
(dp1126
g92
g93
ssg74
g1115
sg67
(lp1127
S':'
asbag60
(g81
g62
NtRp1128
(dp1129
g65
(dp1130
sg74
g1115
sg67
(lp1131
g60
(g61
g62
NtRp1132
(dp1133
g65
(dp1134
g73
I4
ssg74
g1128
sg67
(lp1135
S'text/html,application/xhtml+xml,application/xml;q=0.9,*/*;q=0.8'
p1136
asbasbasbag60
(g76
g62
NtRp1137
(dp1138
g65
(dp1139
sg74
g955
sg67
(lp1140
g60
(g81
g62
NtRp1141
(dp1142
g65
(dp1143
g85
g86
ssg74
g1137
sg67
(lp1144
S'http_accept_charset'
p1145
asbag60
(g81
g62
NtRp1146
(dp1147
g65
(dp1148
g92
g93
ssg74
g1137
sg67
(lp1149
S':'
asbag60
(g81
g62
NtRp1150
(dp1151
g65
(dp1152
sg74
g1137
sg67
(lp1153
g60
(g61
g62
NtRp1154
(dp1155
g65
(dp1156
g73
I4
ssg74
g1150
sg67
(lp1157
S'ISO-8859-1,utf-8;q=0.7,*;q=0.3'
p1158
asbasbasbag60
(g76
g62
NtRp1159
(dp1160
g65
(dp1161
sg74
g955
sg67
(lp1162
g60
(g81
g62
NtRp1163
(dp1164
g65
(dp1165
g85
g86
ssg74
g1159
sg67
(lp1166
S'http_accept_encoding'
p1167
asbag60
(g81
g62
NtRp1168
(dp1169
g65
(dp1170
g92
g93
ssg74
g1159
sg67
(lp1171
S':'
asbag60
(g81
g62
NtRp1172
(dp1173
g65
(dp1174
sg74
g1159
sg67
(lp1175
g60
(g61
g62
NtRp1176
(dp1177
g65
(dp1178
g73
I4
ssg74
g1172
sg67
(lp1179
S'gzip,deflate,sdch'
p1180
asbasbasbag60
(g76
g62
NtRp1181
(dp1182
g65
(dp1183
sg74
g955
sg67
(lp1184
g60
(g81
g62
NtRp1185
(dp1186
g65
(dp1187
g85
g86
ssg74
g1181
sg67
(lp1188
S'http_accept_language'
p1189
asbag60
(g81
g62
NtRp1190
(dp1191
g65
(dp1192
g92
g93
ssg74
g1181
sg67
(lp1193
S':'
asbag60
(g81
g62
NtRp1194
(dp1195
g65
(dp1196
sg74
g1181
sg67
(lp1197
g60
(g61
g62
NtRp1198
(dp1199
g65
(dp1200
g73
I4
ssg74
g1194
sg67
(lp1201
S'en-US,en;q=0.8'
p1202
asbasbasbag60
(g76
g62
NtRp1203
(dp1204
g65
(dp1205
sg74
g955
sg67
(lp1206
g60
(g81
g62
NtRp1207
(dp1208
g65
(dp1209
g85
g86
ssg74
g1203
sg67
(lp1210
S'http_cache_control'
p1211
asbag60
(g81
g62
NtRp1212
(dp1213
g65
(dp1214
g92
g93
ssg74
g1203
sg67
(lp1215
S':'
asbag60
(g81
g62
NtRp1216
(dp1217
g65
(dp1218
sg74
g1203
sg67
(lp1219
g60
(g61
g62
NtRp1220
(dp1221
g65
(dp1222
g73
I4
ssg74
g1216
sg67
(lp1223
S'max-age=0'
p1224
asbasbasbag60
(g76
g62
NtRp1225
(dp1226
g65
(dp1227
sg74
g955
sg67
(lp1228
g60
(g81
g62
NtRp1229
(dp1230
g65
(dp1231
g85
g86
ssg74
g1225
sg67
(lp1232
S'http_connection'
p1233
asbag60
(g81
g62
NtRp1234
(dp1235
g65
(dp1236
g92
g93
ssg74
g1225
sg67
(lp1237
S':'
asbag60
(g81
g62
NtRp1238
(dp1239
g65
(dp1240
sg74
g1225
sg67
(lp1241
g60
(g61
g62
NtRp1242
(dp1243
g65
(dp1244
g73
I4
ssg74
g1238
sg67
(lp1245
S'keep-alive'
p1246
asbasbasbag60
(g76
g62
NtRp1247
(dp1248
g65
(dp1249
sg74
g955
sg67
(lp1250
g60
(g81
g62
NtRp1251
(dp1252
g65
(dp1253
g85
g86
ssg74
g1247
sg67
(lp1254
S'http_cookie'
p1255
asbag60
(g81
g62
NtRp1256
(dp1257
g65
(dp1258
g92
g93
ssg74
g1247
sg67
(lp1259
S':'
asbag60
(g81
g62
NtRp1260
(dp1261
g65
(dp1262
sg74
g1247
sg67
(lp1263
g60
(g61
g62
NtRp1264
(dp1265
g65
(dp1266
g73
I4
ssg74
g1260
sg67
(lp1267
S'session_id_ticketealo=127.0.0.1-ee6b1252-5e9e-4c19-b834-3e24bec5592e; session_id_welcome=127.0.0.1-fb228a9b-2978-48d8-b012-9dfe4c9f9769; session_id_mifacebook=127.0.0.1-05de177b-62db-48b0-aa89-2aa07a9430e3; session_id_admin=127.0.0.1-a9f3a8b4-34a5-483c-9aa9-3d500e71f00c'
p1268
asbasbasbag60
(g76
g62
NtRp1269
(dp1270
g65
(dp1271
sg74
g955
sg67
(lp1272
g60
(g81
g62
NtRp1273
(dp1274
g65
(dp1275
g85
g86
ssg74
g1269
sg67
(lp1276
S'http_host'
p1277
asbag60
(g81
g62
NtRp1278
(dp1279
g65
(dp1280
g92
g93
ssg74
g1269
sg67
(lp1281
S':'
asbag60
(g81
g62
NtRp1282
(dp1283
g65
(dp1284
sg74
g1269
sg67
(lp1285
g60
(g61
g62
NtRp1286
(dp1287
g65
(dp1288
g73
I4
ssg74
g1282
sg67
(lp1289
S'127.0.0.1:8000'
p1290
asbasbasbag60
(g76
g62
NtRp1291
(dp1292
g65
(dp1293
sg74
g955
sg67
(lp1294
g60
(g81
g62
NtRp1295
(dp1296
g65
(dp1297
g85
g86
ssg74
g1291
sg67
(lp1298
S'http_user_agent'
p1299
asbag60
(g81
g62
NtRp1300
(dp1301
g65
(dp1302
g92
g93
ssg74
g1291
sg67
(lp1303
S':'
asbag60
(g81
g62
NtRp1304
(dp1305
g65
(dp1306
sg74
g1291
sg67
(lp1307
g60
(g61
g62
NtRp1308
(dp1309
g65
(dp1310
g73
I4
ssg74
g1304
sg67
(lp1311
S'Mozilla/5.0 (Macintosh; Intel Mac OS X 10_8_2) AppleWebKit/537.4 (KHTML, like Gecko) Chrome/22.0.1229.94 Safari/537.4'
p1312
asbasbasbag60
(g76
g62
NtRp1313
(dp1314
g65
(dp1315
sg74
g955
sg67
(lp1316
g60
(g81
g62
NtRp1317
(dp1318
g65
(dp1319
g85
g86
ssg74
g1313
sg67
(lp1320
S'is_jython'
p1321
asbag60
(g81
g62
NtRp1322
(dp1323
g65
(dp1324
g92
g93
ssg74
g1313
sg67
(lp1325
S':'
asbag60
(g81
g62
NtRp1326
(dp1327
g65
(dp1328
sg74
g1313
sg67
(lp1329
g60
(g61
g62
NtRp1330
(dp1331
g65
(dp1332
g73
I4
ssg74
g1326
sg67
(lp1333
g103
asbasbasbag60
(g76
g62
NtRp1334
(dp1335
g65
(dp1336
sg74
g955
sg67
(lp1337
g60
(g81
g62
NtRp1338
(dp1339
g65
(dp1340
g85
g86
ssg74
g1334
sg67
(lp1341
S'is_pypy'
p1342
asbag60
(g81
g62
NtRp1343
(dp1344
g65
(dp1345
g92
g93
ssg74
g1334
sg67
(lp1346
S':'
asbag60
(g81
g62
NtRp1347
(dp1348
g65
(dp1349
sg74
g1334
sg67
(lp1350
g60
(g61
g62
NtRp1351
(dp1352
g65
(dp1353
g73
I4
ssg74
g1347
sg67
(lp1354
g103
asbasbasbag60
(g76
g62
NtRp1355
(dp1356
g65
(dp1357
sg74
g955
sg67
(lp1358
g60
(g81
g62
NtRp1359
(dp1360
g65
(dp1361
g85
g86
ssg74
g1355
sg67
(lp1362
S'path_info'
p1363
asbag60
(g81
g62
NtRp1364
(dp1365
g65
(dp1366
g92
g93
ssg74
g1355
sg67
(lp1367
S':'
asbag60
(g81
g62
NtRp1368
(dp1369
g65
(dp1370
sg74
g1355
sg67
(lp1371
g60
(g61
g62
NtRp1372
(dp1373
g65
(dp1374
g73
I4
ssg74
g1368
sg67
(lp1375
S'/miFacebook/default/friends'
p1376
asbasbasbag60
(g76
g62
NtRp1377
(dp1378
g65
(dp1379
sg74
g955
sg67
(lp1380
g60
(g81
g62
NtRp1381
(dp1382
g65
(dp1383
g85
g86
ssg74
g1377
sg67
(lp1384
S'query_string'
p1385
asbag60
(g81
g62
NtRp1386
(dp1387
g65
(dp1388
g92
g93
ssg74
g1377
sg67
(lp1389
S':'
asbag60
(g81
g62
NtRp1390
(dp1391
g65
(dp1392
sg74
g1377
sg67
(lp1393
g60
(g61
g62
NtRp1394
(dp1395
g65
(dp1396
g73
I4
ssg74
g1390
sg67
(lp1397
S''
asbasbasbag60
(g76
g62
NtRp1398
(dp1399
g65
(dp1400
sg74
g955
sg67
(lp1401
g60
(g81
g62
NtRp1402
(dp1403
g65
(dp1404
g85
g86
ssg74
g1398
sg67
(lp1405
S'remote_addr'
p1406
asbag60
(g81
g62
NtRp1407
(dp1408
g65
(dp1409
g92
g93
ssg74
g1398
sg67
(lp1410
S':'
asbag60
(g81
g62
NtRp1411
(dp1412
g65
(dp1413
sg74
g1398
sg67
(lp1414
g60
(g61
g62
NtRp1415
(dp1416
g65
(dp1417
g73
I4
ssg74
g1411
sg67
(lp1418
g215
asbasbasbag60
(g76
g62
NtRp1419
(dp1420
g65
(dp1421
sg74
g955
sg67
(lp1422
g60
(g81
g62
NtRp1423
(dp1424
g65
(dp1425
g85
g86
ssg74
g1419
sg67
(lp1426
S'remote_port'
p1427
asbag60
(g81
g62
NtRp1428
(dp1429
g65
(dp1430
g92
g93
ssg74
g1419
sg67
(lp1431
S':'
asbag60
(g81
g62
NtRp1432
(dp1433
g65
(dp1434
sg74
g1419
sg67
(lp1435
g60
(g61
g62
NtRp1436
(dp1437
g65
(dp1438
g73
I4
ssg74
g1432
sg67
(lp1439
S'50086'
p1440
asbasbasbag60
(g76
g62
NtRp1441
(dp1442
g65
(dp1443
sg74
g955
sg67
(lp1444
g60
(g81
g62
NtRp1445
(dp1446
g65
(dp1447
g85
g86
ssg74
g1441
sg67
(lp1448
S'request_method'
p1449
asbag60
(g81
g62
NtRp1450
(dp1451
g65
(dp1452
g92
g93
ssg74
g1441
sg67
(lp1453
S':'
asbag60
(g81
g62
NtRp1454
(dp1455
g65
(dp1456
sg74
g1441
sg67
(lp1457
g60
(g61
g62
NtRp1458
(dp1459
g65
(dp1460
g73
I4
ssg74
g1454
sg67
(lp1461
S'GET'
p1462
asbasbasbag60
(g76
g62
NtRp1463
(dp1464
g65
(dp1465
sg74
g955
sg67
(lp1466
g60
(g81
g62
NtRp1467
(dp1468
g65
(dp1469
g85
g86
ssg74
g1463
sg67
(lp1470
S'request_uri'
p1471
asbag60
(g81
g62
NtRp1472
(dp1473
g65
(dp1474
g92
g93
ssg74
g1463
sg67
(lp1475
S':'
asbag60
(g81
g62
NtRp1476
(dp1477
g65
(dp1478
sg74
g1463
sg67
(lp1479
g60
(g61
g62
NtRp1480
(dp1481
g65
(dp1482
g73
I4
ssg74
g1476
sg67
(lp1483
g1376
asbasbasbag60
(g76
g62
NtRp1484
(dp1485
g65
(dp1486
sg74
g955
sg67
(lp1487
g60
(g81
g62
NtRp1488
(dp1489
g65
(dp1490
g85
g86
ssg74
g1484
sg67
(lp1491
S'script_name'
p1492
asbag60
(g81
g62
NtRp1493
(dp1494
g65
(dp1495
g92
g93
ssg74
g1484
sg67
(lp1496
S':'
asbag60
(g81
g62
NtRp1497
(dp1498
g65
(dp1499
sg74
g1484
sg67
(lp1500
g60
(g61
g62
NtRp1501
(dp1502
g65
(dp1503
g73
I4
ssg74
g1497
sg67
(lp1504
S''
asbasbasbag60
(g76
g62
NtRp1505
(dp1506
g65
(dp1507
sg74
g955
sg67
(lp1508
g60
(g81
g62
NtRp1509
(dp1510
g65
(dp1511
g85
g86
ssg74
g1505
sg67
(lp1512
S'server_name'
p1513
asbag60
(g81
g62
NtRp1514
(dp1515
g65
(dp1516
g92
g93
ssg74
g1505
sg67
(lp1517
S':'
asbag60
(g81
g62
NtRp1518
(dp1519
g65
(dp1520
sg74
g1505
sg67
(lp1521
g60
(g61
g62
NtRp1522
(dp1523
g65
(dp1524
g73
I4
ssg74
g1518
sg67
(lp1525
S'MacBook-Pro-de-Alberto.local'
p1526
asbasbasbag60
(g76
g62
NtRp1527
(dp1528
g65
(dp1529
sg74
g955
sg67
(lp1530
g60
(g81
g62
NtRp1531
(dp1532
g65
(dp1533
g85
g86
ssg74
g1527
sg67
(lp1534
S'server_port'
p1535
asbag60
(g81
g62
NtRp1536
(dp1537
g65
(dp1538
g92
g93
ssg74
g1527
sg67
(lp1539
S':'
asbag60
(g81
g62
NtRp1540
(dp1541
g65
(dp1542
sg74
g1527
sg67
(lp1543
g60
(g61
g62
NtRp1544
(dp1545
g65
(dp1546
g73
I4
ssg74
g1540
sg67
(lp1547
S'8000'
p1548
asbasbasbag60
(g76
g62
NtRp1549
(dp1550
g65
(dp1551
sg74
g955
sg67
(lp1552
g60
(g81
g62
NtRp1553
(dp1554
g65
(dp1555
g85
g86
ssg74
g1549
sg67
(lp1556
S'server_protocol'
p1557
asbag60
(g81
g62
NtRp1558
(dp1559
g65
(dp1560
g92
g93
ssg74
g1549
sg67
(lp1561
S':'
asbag60
(g81
g62
NtRp1562
(dp1563
g65
(dp1564
sg74
g1549
sg67
(lp1565
g60
(g61
g62
NtRp1566
(dp1567
g65
(dp1568
g73
I4
ssg74
g1562
sg67
(lp1569
S'HTTP/1.1'
p1570
asbasbasbag60
(g76
g62
NtRp1571
(dp1572
g65
(dp1573
sg74
g955
sg67
(lp1574
g60
(g81
g62
NtRp1575
(dp1576
g65
(dp1577
g85
g86
ssg74
g1571
sg67
(lp1578
S'server_software'
p1579
asbag60
(g81
g62
NtRp1580
(dp1581
g65
(dp1582
g92
g93
ssg74
g1571
sg67
(lp1583
S':'
asbag60
(g81
g62
NtRp1584
(dp1585
g65
(dp1586
sg74
g1571
sg67
(lp1587
g60
(g61
g62
NtRp1588
(dp1589
g65
(dp1590
g73
I4
ssg74
g1584
sg67
(lp1591
S'Rocket 1.2.4'
p1592
asbasbasbag60
(g76
g62
NtRp1593
(dp1594
g65
(dp1595
sg74
g955
sg67
(lp1596
g60
(g81
g62
NtRp1597
(dp1598
g65
(dp1599
g85
g86
ssg74
g1593
sg67
(lp1600
S'web2py_crontype'
p1601
asbag60
(g81
g62
NtRp1602
(dp1603
g65
(dp1604
g92
g93
ssg74
g1593
sg67
(lp1605
S':'
asbag60
(g81
g62
NtRp1606
(dp1607
g65
(dp1608
sg74
g1593
sg67
(lp1609
g60
(g61
g62
NtRp1610
(dp1611
g65
(dp1612
g73
I4
ssg74
g1606
sg67
(lp1613
S'hard'
p1614
asbasbasbag60
(g76
g62
NtRp1615
(dp1616
g65
(dp1617
sg74
g955
sg67
(lp1618
g60
(g81
g62
NtRp1619
(dp1620
g65
(dp1621
g85
g86
ssg74
g1615
sg67
(lp1622
S'web2py_path'
p1623
asbag60
(g81
g62
NtRp1624
(dp1625
g65
(dp1626
g92
g93
ssg74
g1615
sg67
(lp1627
S':'
asbag60
(g81
g62
NtRp1628
(dp1629
g65
(dp1630
sg74
g1615
sg67
(lp1631
g60
(g61
g62
NtRp1632
(dp1633
g65
(dp1634
g73
I4
ssg74
g1628
sg67
(lp1635
g1002
asbasbasbag60
(g76
g62
NtRp1636
(dp1637
g65
(dp1638
sg74
g955
sg67
(lp1639
g60
(g81
g62
NtRp1640
(dp1641
g65
(dp1642
g85
g86
ssg74
g1636
sg67
(lp1643
S'web2py_version'
p1644
asbag60
(g81
g62
NtRp1645
(dp1646
g65
(dp1647
g92
g93
ssg74
g1636
sg67
(lp1648
S':'
asbag60
(g81
g62
NtRp1649
(dp1650
g65
(dp1651
sg74
g1636
sg67
(lp1652
g60
(g61
g62
NtRp1653
(dp1654
g65
(dp1655
g73
I4
ssg74
g1649
sg67
(lp1656
g60
(g69
g62
NtRp1657
(dp1658
g65
(dp1659
g73
I3
ssg74
Nsg67
(lp1660
g60
(g76
g62
NtRp1661
(dp1662
g65
(dp1663
sg74
g1657
sg67
(lp1664
g60
(g81
g62
NtRp1665
(dp1666
g65
(dp1667
sg74
g1661
sg67
(lp1668
g60
(g61
g62
NtRp1669
(dp1670
g65
(dp1671
g73
I3
ssg74
g1665
sg67
(lp1672
S'2'
asbasbasbag60
(g76
g62
NtRp1673
(dp1674
g65
(dp1675
sg74
g1657
sg67
(lp1676
g60
(g81
g62
NtRp1677
(dp1678
g65
(dp1679
sg74
g1673
sg67
(lp1680
g60
(g61
g62
NtRp1681
(dp1682
g65
(dp1683
g73
I3
ssg74
g1677
sg67
(lp1684
S'0'
asbasbasbag60
(g76
g62
NtRp1685
(dp1686
g65
(dp1687
sg74
g1657
sg67
(lp1688
g60
(g81
g62
NtRp1689
(dp1690
g65
(dp1691
sg74
g1685
sg67
(lp1692
g60
(g61
g62
NtRp1693
(dp1694
g65
(dp1695
g73
I3
ssg74
g1689
sg67
(lp1696
S'9'
asbasbasbag60
(g76
g62
NtRp1697
(dp1698
g65
(dp1699
sg74
g1657
sg67
(lp1700
g60
(g81
g62
NtRp1701
(dp1702
g65
(dp1703
sg74
g1697
sg67
(lp1704
g60
(g61
g62
NtRp1705
(dp1706
g65
(dp1707
g73
I3
ssg74
g1701
sg67
(lp1708
S'datetime.datetime(2012, 9, 13, 23, 51, 30)'
p1709
asbasbasbag60
(g76
g62
NtRp1710
(dp1711
g65
(dp1712
sg74
g1657
sg67
(lp1713
g60
(g81
g62
NtRp1714
(dp1715
g65
(dp1716
sg74
g1710
sg67
(lp1717
g60
(g61
g62
NtRp1718
(dp1719
g65
(dp1720
g73
I3
ssg74
g1714
sg67
(lp1721
S'stable'
p1722
asbasbasbasbasbasbasbag60
(g76
g62
NtRp1723
(dp1724
g65
(dp1725
sg74
g955
sg67
(lp1726
g60
(g81
g62
NtRp1727
(dp1728
g65
(dp1729
g85
g86
ssg74
g1723
sg67
(lp1730
S'wsgi_errors'
p1731
asbag60
(g81
g62
NtRp1732
(dp1733
g65
(dp1734
g92
g93
ssg74
g1723
sg67
(lp1735
S':'
asbag60
(g81
g62
NtRp1736
(dp1737
g65
(dp1738
sg74
g1723
sg67
(lp1739
g60
(g61
g62
NtRp1740
(dp1741
g65
(dp1742
g73
I4
ssg74
g1736
sg67
(lp1743
S"<open file '<stderr>', mode 'w' at 0x540b0>"
p1744
asbasbasbag60
(g76
g62
NtRp1745
(dp1746
g65
(dp1747
sg74
g955
sg67
(lp1748
g60
(g81
g62
NtRp1749
(dp1750
g65
(dp1751
g85
g86
ssg74
g1745
sg67
(lp1752
S'wsgi_file_wrapper'
p1753
asbag60
(g81
g62
NtRp1754
(dp1755
g65
(dp1756
g92
g93
ssg74
g1745
sg67
(lp1757
S':'
asbag60
(g81
g62
NtRp1758
(dp1759
g65
(dp1760
sg74
g1745
sg67
(lp1761
g60
(g61
g62
NtRp1762
(dp1763
g65
(dp1764
g73
I4
ssg74
g1758
sg67
(lp1765
S'<class wsgiref.util.FileWrapper at 0x599c060>'
p1766
asbasbasbag60
(g76
g62
NtRp1767
(dp1768
g65
(dp1769
sg74
g955
sg67
(lp1770
g60
(g81
g62
NtRp1771
(dp1772
g65
(dp1773
g85
g86
ssg74
g1767
sg67
(lp1774
S'wsgi_input'
p1775
asbag60
(g81
g62
NtRp1776
(dp1777
g65
(dp1778
g92
g93
ssg74
g1767
sg67
(lp1779
S':'
asbag60
(g81
g62
NtRp1780
(dp1781
g65
(dp1782
sg74
g1767
sg67
(lp1783
g60
(g61
g62
NtRp1784
(dp1785
g65
(dp1786
g73
I4
ssg74
g1780
sg67
(lp1787
S'<socket._fileobject object at 0xa7d7770>'
p1788
asbasbasbag60
(g76
g62
NtRp1789
(dp1790
g65
(dp1791
sg74
g955
sg67
(lp1792
g60
(g81
g62
NtRp1793
(dp1794
g65
(dp1795
g85
g86
ssg74
g1789
sg67
(lp1796
S'wsgi_multiprocess'
p1797
asbag60
(g81
g62
NtRp1798
(dp1799
g65
(dp1800
g92
g93
ssg74
g1789
sg67
(lp1801
S':'
asbag60
(g81
g62
NtRp1802
(dp1803
g65
(dp1804
sg74
g1789
sg67
(lp1805
g60
(g61
g62
NtRp1806
(dp1807
g65
(dp1808
g73
I4
ssg74
g1802
sg67
(lp1809
g103
asbasbasbag60
(g76
g62
NtRp1810
(dp1811
g65
(dp1812
sg74
g955
sg67
(lp1813
g60
(g81
g62
NtRp1814
(dp1815
g65
(dp1816
g85
g86
ssg74
g1810
sg67
(lp1817
S'wsgi_multithread'
p1818
asbag60
(g81
g62
NtRp1819
(dp1820
g65
(dp1821
g92
g93
ssg74
g1810
sg67
(lp1822
S':'
asbag60
(g81
g62
NtRp1823
(dp1824
g65
(dp1825
sg74
g1810
sg67
(lp1826
g60
(g61
g62
NtRp1827
(dp1828
g65
(dp1829
g73
I4
ssg74
g1823
sg67
(lp1830
S'True'
p1831
asbasbasbag60
(g76
g62
NtRp1832
(dp1833
g65
(dp1834
sg74
g955
sg67
(lp1835
g60
(g81
g62
NtRp1836
(dp1837
g65
(dp1838
g85
g86
ssg74
g1832
sg67
(lp1839
S'wsgi_run_once'
p1840
asbag60
(g81
g62
NtRp1841
(dp1842
g65
(dp1843
g92
g93
ssg74
g1832
sg67
(lp1844
S':'
asbag60
(g81
g62
NtRp1845
(dp1846
g65
(dp1847
sg74
g1832
sg67
(lp1848
g60
(g61
g62
NtRp1849
(dp1850
g65
(dp1851
g73
I4
ssg74
g1845
sg67
(lp1852
g103
asbasbasbag60
(g76
g62
NtRp1853
(dp1854
g65
(dp1855
sg74
g955
sg67
(lp1856
g60
(g81
g62
NtRp1857
(dp1858
g65
(dp1859
g85
g86
ssg74
g1853
sg67
(lp1860
S'wsgi_url_scheme'
p1861
asbag60
(g81
g62
NtRp1862
(dp1863
g65
(dp1864
g92
g93
ssg74
g1853
sg67
(lp1865
S':'
asbag60
(g81
g62
NtRp1866
(dp1867
g65
(dp1868
sg74
g1853
sg67
(lp1869
g60
(g61
g62
NtRp1870
(dp1871
g65
(dp1872
g73
I4
ssg74
g1866
sg67
(lp1873
S'http'
p1874
asbasbasbag60
(g76
g62
NtRp1875
(dp1876
g65
(dp1877
sg74
g955
sg67
(lp1878
g60
(g81
g62
NtRp1879
(dp1880
g65
(dp1881
g85
g86
ssg74
g1875
sg67
(lp1882
S'wsgi_version'
p1883
asbag60
(g81
g62
NtRp1884
(dp1885
g65
(dp1886
g92
g93
ssg74
g1875
sg67
(lp1887
S':'
asbag60
(g81
g62
NtRp1888
(dp1889
g65
(dp1890
sg74
g1875
sg67
(lp1891
g60
(g61
g62
NtRp1892
(dp1893
g65
(dp1894
g73
I4
ssg74
g1888
sg67
(lp1895
g60
(g69
g62
NtRp1896
(dp1897
g65
(dp1898
g73
I3
ssg74
Nsg67
(lp1899
g60
(g76
g62
NtRp1900
(dp1901
g65
(dp1902
sg74
g1896
sg67
(lp1903
g60
(g81
g62
NtRp1904
(dp1905
g65
(dp1906
sg74
g1900
sg67
(lp1907
g60
(g61
g62
NtRp1908
(dp1909
g65
(dp1910
g73
I3
ssg74
g1904
sg67
(lp1911
S'1'
asbasbasbag60
(g76
g62
NtRp1912
(dp1913
g65
(dp1914
sg74
g1896
sg67
(lp1915
g60
(g81
g62
NtRp1916
(dp1917
g65
(dp1918
sg74
g1912
sg67
(lp1919
g60
(g61
g62
NtRp1920
(dp1921
g65
(dp1922
g73
I3
ssg74
g1916
sg67
(lp1923
S'0'
asbasbasbasbasbasbasbasbasbasbasbag60
(g76
g62
NtRp1924
(dp1925
g65
(dp1926
sg74
g70
sg67
(lp1927
g60
(g81
g62
NtRp1928
(dp1929
g65
(dp1930
g85
g86
ssg74
g1924
sg67
(lp1931
S'extension'
p1932
asbag60
(g81
g62
NtRp1933
(dp1934
g65
(dp1935
g92
g93
ssg74
g1924
sg67
(lp1936
S':'
asbag60
(g81
g62
NtRp1937
(dp1938
g65
(dp1939
sg74
g1924
sg67
(lp1940
g60
(g61
g62
NtRp1941
(dp1942
g65
(dp1943
g73
I5
ssg74
g1937
sg67
(lp1944
S'html'
p1945
asbasbasbag60
(g76
g62
NtRp1946
(dp1947
g65
(dp1948
sg74
g70
sg67
(lp1949
g60
(g81
g62
NtRp1950
(dp1951
g65
(dp1952
g85
g86
ssg74
g1946
sg67
(lp1953
S'folder'
p1954
asbag60
(g81
g62
NtRp1955
(dp1956
g65
(dp1957
g92
g93
ssg74
g1946
sg67
(lp1958
S':'
asbag60
(g81
g62
NtRp1959
(dp1960
g65
(dp1961
sg74
g1946
sg67
(lp1962
g60
(g61
g62
NtRp1963
(dp1964
g65
(dp1965
g73
I5
ssg74
g1959
sg67
(lp1966
S'/Applications/web2py.app/Contents/Resources/applications/miFacebook/'
p1967
asbasbasbag60
(g76
g62
NtRp1968
(dp1969
g65
(dp1970
sg74
g70
sg67
(lp1971
g60
(g81
g62
NtRp1972
(dp1973
g65
(dp1974
g85
g86
ssg74
g1968
sg67
(lp1975
S'function'
p1976
asbag60
(g81
g62
NtRp1977
(dp1978
g65
(dp1979
g92
g93
ssg74
g1968
sg67
(lp1980
S':'
asbag60
(g81
g62
NtRp1981
(dp1982
g65
(dp1983
sg74
g1968
sg67
(lp1984
g60
(g61
g62
NtRp1985
(dp1986
g65
(dp1987
g73
I5
ssg74
g1981
sg67
(lp1988
S'friends'
p1989
asbasbasbag60
(g76
g62
NtRp1990
(dp1991
g65
(dp1992
sg74
g70
sg67
(lp1993
g60
(g81
g62
NtRp1994
(dp1995
g65
(dp1996
g85
g86
ssg74
g1990
sg67
(lp1997
S'get_vars'
p1998
asbag60
(g81
g62
NtRp1999
(dp2000
g65
(dp2001
g92
g93
ssg74
g1990
sg67
(lp2002
S':'
asbag60
(g81
g62
NtRp2003
(dp2004
g65
(dp2005
sg74
g1990
sg67
(lp2006
g60
(g61
g62
NtRp2007
(dp2008
g65
(dp2009
g73
I5
ssg74
g2003
sg67
(lp2010
g60
(g69
g62
NtRp2011
(dp2012
g65
(dp2013
g73
I4
ssg74
Nsg67
(lp2014
sbasbasbasbag60
(g76
g62
NtRp2015
(dp2016
g65
(dp2017
sg74
g70
sg67
(lp2018
g60
(g81
g62
NtRp2019
(dp2020
g65
(dp2021
g85
g86
ssg74
g2015
sg67
(lp2022
S'global_settings'
p2023
asbag60
(g81
g62
NtRp2024
(dp2025
g65
(dp2026
g92
g93
ssg74
g2015
sg67
(lp2027
S':'
asbag60
(g81
g62
NtRp2028
(dp2029
g65
(dp2030
sg74
g2015
sg67
(lp2031
g60
(g61
g62
NtRp2032
(dp2033
g65
(dp2034
g73
I5
ssg74
g2028
sg67
(lp2035
g60
(g69
g62
NtRp2036
(dp2037
g65
(dp2038
g73
I4
ssg74
Nsg67
(lp2039
g60
(g76
g62
NtRp2040
(dp2041
g65
(dp2042
sg74
g2036
sg67
(lp2043
g60
(g81
g62
NtRp2044
(dp2045
g65
(dp2046
g85
g86
ssg74
g2040
sg67
(lp2047
g967
asbag60
(g81
g62
NtRp2048
(dp2049
g65
(dp2050
g92
g93
ssg74
g2040
sg67
(lp2051
S':'
asbag60
(g81
g62
NtRp2052
(dp2053
g65
(dp2054
sg74
g2040
sg67
(lp2055
g60
(g61
g62
NtRp2056
(dp2057
g65
(dp2058
g73
I4
ssg74
g2052
sg67
(lp2059
S"set(['/Applications/web2py.app/Contents/Resources/applications/miFacebook/', '/Applications/web2py.app/Contents/Resources/applications/admin/', '/Applications/web2py.app/Contents/Resources/applications/welcome/', '/Applications/web2py.app/Contents/Resources/applications/ticketealo/'])"
p2060
asbasbasbag60
(g76
g62
NtRp2061
(dp2062
g65
(dp2063
sg74
g2036
sg67
(lp2064
g60
(g81
g62
NtRp2065
(dp2066
g65
(dp2067
g85
g86
ssg74
g2061
sg67
(lp2068
g989
asbag60
(g81
g62
NtRp2069
(dp2070
g65
(dp2071
g92
g93
ssg74
g2061
sg67
(lp2072
S':'
asbag60
(g81
g62
NtRp2073
(dp2074
g65
(dp2075
sg74
g2061
sg67
(lp2076
g60
(g61
g62
NtRp2077
(dp2078
g65
(dp2079
g73
I4
ssg74
g2073
sg67
(lp2080
g1002
asbasbasbag60
(g76
g62
NtRp2081
(dp2082
g65
(dp2083
sg74
g2036
sg67
(lp2084
g60
(g81
g62
NtRp2085
(dp2086
g65
(dp2087
g85
g86
ssg74
g2081
sg67
(lp2088
g1011
asbag60
(g81
g62
NtRp2089
(dp2090
g65
(dp2091
g92
g93
ssg74
g2081
sg67
(lp2092
S':'
asbag60
(g81
g62
NtRp2093
(dp2094
g65
(dp2095
sg74
g2081
sg67
(lp2096
g60
(g61
g62
NtRp2097
(dp2098
g65
(dp2099
g73
I4
ssg74
g2093
sg67
(lp2100
g60
(g69
g62
NtRp2101
(dp2102
g65
(dp2103
g73
I3
ssg74
Nsg67
(lp2104
sbasbasbasbag60
(g76
g62
NtRp2105
(dp2106
g65
(dp2107
sg74
g2036
sg67
(lp2108
g60
(g81
g62
NtRp2109
(dp2110
g65
(dp2111
g85
g86
ssg74
g2105
sg67
(lp2112
g1036
asbag60
(g81
g62
NtRp2113
(dp2114
g65
(dp2115
g92
g93
ssg74
g2105
sg67
(lp2116
S':'
asbag60
(g81
g62
NtRp2117
(dp2118
g65
(dp2119
sg74
g2105
sg67
(lp2120
g60
(g61
g62
NtRp2121
(dp2122
g65
(dp2123
g73
I4
ssg74
g2117
sg67
(lp2124
S"<Values at 0x59bd8f0: {'verbose': False, 'ip': '127.0.0.1', 'with_scheduler': False, 'ips': ['172.30.12.190'], 'shutdown_timeout': 5, 'taskbar': False, 'port': 8000, 'maxthreads': None, 'softcron': False, 'server_name': 'MacBook-Pro-de-Alberto.local', 'bpython': False, 'nogui': False, 'nocron': False, 'extcron': False, 'run_system_tests': False, 'test': None, 'folder': '/Applications/web2py.app/Contents/Resources', 'config': '', 'import_models': False, 'winservice': '', 'shell': None, 'run': '', 'log_filename': 'httpserver.log', 'debuglevel': 30, 'args': [''], 'socket_timeout': 5, 'ssl_ca_certificate': None, 'scheduler': None, 'profiler_filename': None, 'ssl_private_key': '', 'scheduler_groups': None, 'password': '<ask>', 'request_queue_size': 5, 'ssl_certificate': '', 'cronjob': False, 'numthreads': None, 'quiet': False, 'interfaces': None, 'minthreads': None, 'timeout': 10, 'plain': False, 'nobanner': False, 'pid_filename': 'httpserver.pid'}>"
p2125
asbasbasbag60
(g76
g62
NtRp2126
(dp2127
g65
(dp2128
sg74
g2036
sg67
(lp2129
g60
(g81
g62
NtRp2130
(dp2131
g65
(dp2132
g85
g86
ssg74
g2126
sg67
(lp2133
g1058
asbag60
(g81
g62
NtRp2134
(dp2135
g65
(dp2136
g92
g93
ssg74
g2126
sg67
(lp2137
S':'
asbag60
(g81
g62
NtRp2138
(dp2139
g65
(dp2140
sg74
g2126
sg67
(lp2141
g60
(g61
g62
NtRp2142
(dp2143
g65
(dp2144
g73
I4
ssg74
g2138
sg67
(lp2145
S'set([])'
p2146
asbasbasbag60
(g76
g62
NtRp2147
(dp2148
g65
(dp2149
sg74
g2036
sg67
(lp2150
g60
(g81
g62
NtRp2151
(dp2152
g65
(dp2153
g85
g86
ssg74
g2147
sg67
(lp2154
g1080
asbag60
(g81
g62
NtRp2155
(dp2156
g65
(dp2157
g92
g93
ssg74
g2147
sg67
(lp2158
S':'
asbag60
(g81
g62
NtRp2159
(dp2160
g65
(dp2161
sg74
g2147
sg67
(lp2162
g60
(g61
g62
NtRp2163
(dp2164
g65
(dp2165
g73
I4
ssg74
g2159
sg67
(lp2166
g103
asbasbasbag60
(g76
g62
NtRp2167
(dp2168
g65
(dp2169
sg74
g2036
sg67
(lp2170
g60
(g81
g62
NtRp2171
(dp2172
g65
(dp2173
g85
g86
ssg74
g2167
sg67
(lp2174
g1101
asbag60
(g81
g62
NtRp2175
(dp2176
g65
(dp2177
g92
g93
ssg74
g2167
sg67
(lp2178
S':'
asbag60
(g81
g62
NtRp2179
(dp2180
g65
(dp2181
sg74
g2167
sg67
(lp2182
g60
(g61
g62
NtRp2183
(dp2184
g65
(dp2185
g73
I4
ssg74
g2179
sg67
(lp2186
g1114
asbasbasbag60
(g76
g62
NtRp2187
(dp2188
g65
(dp2189
sg74
g2036
sg67
(lp2190
g60
(g81
g62
NtRp2191
(dp2192
g65
(dp2193
g85
g86
ssg74
g2187
sg67
(lp2194
g1321
asbag60
(g81
g62
NtRp2195
(dp2196
g65
(dp2197
g92
g93
ssg74
g2187
sg67
(lp2198
S':'
asbag60
(g81
g62
NtRp2199
(dp2200
g65
(dp2201
sg74
g2187
sg67
(lp2202
g60
(g61
g62
NtRp2203
(dp2204
g65
(dp2205
g73
I4
ssg74
g2199
sg67
(lp2206
g103
asbasbasbag60
(g76
g62
NtRp2207
(dp2208
g65
(dp2209
sg74
g2036
sg67
(lp2210
g60
(g81
g62
NtRp2211
(dp2212
g65
(dp2213
g85
g86
ssg74
g2207
sg67
(lp2214
g1342
asbag60
(g81
g62
NtRp2215
(dp2216
g65
(dp2217
g92
g93
ssg74
g2207
sg67
(lp2218
S':'
asbag60
(g81
g62
NtRp2219
(dp2220
g65
(dp2221
sg74
g2207
sg67
(lp2222
g60
(g61
g62
NtRp2223
(dp2224
g65
(dp2225
g73
I4
ssg74
g2219
sg67
(lp2226
g103
asbasbasbag60
(g76
g62
NtRp2227
(dp2228
g65
(dp2229
sg74
g2036
sg67
(lp2230
g60
(g81
g62
NtRp2231
(dp2232
g65
(dp2233
g85
g86
ssg74
g2227
sg67
(lp2234
g1601
asbag60
(g81
g62
NtRp2235
(dp2236
g65
(dp2237
g92
g93
ssg74
g2227
sg67
(lp2238
S':'
asbag60
(g81
g62
NtRp2239
(dp2240
g65
(dp2241
sg74
g2227
sg67
(lp2242
g60
(g61
g62
NtRp2243
(dp2244
g65
(dp2245
g73
I4
ssg74
g2239
sg67
(lp2246
g1614
asbasbasbag60
(g76
g62
NtRp2247
(dp2248
g65
(dp2249
sg74
g2036
sg67
(lp2250
g60
(g81
g62
NtRp2251
(dp2252
g65
(dp2253
g85
g86
ssg74
g2247
sg67
(lp2254
g1644
asbag60
(g81
g62
NtRp2255
(dp2256
g65
(dp2257
g92
g93
ssg74
g2247
sg67
(lp2258
S':'
asbag60
(g81
g62
NtRp2259
(dp2260
g65
(dp2261
sg74
g2247
sg67
(lp2262
g60
(g61
g62
NtRp2263
(dp2264
g65
(dp2265
g73
I4
ssg74
g2259
sg67
(lp2266
g60
(g69
g62
NtRp2267
(dp2268
g65
(dp2269
g73
I3
ssg74
Nsg67
(lp2270
g60
(g76
g62
NtRp2271
(dp2272
g65
(dp2273
sg74
g2267
sg67
(lp2274
g60
(g81
g62
NtRp2275
(dp2276
g65
(dp2277
sg74
g2271
sg67
(lp2278
g60
(g61
g62
NtRp2279
(dp2280
g65
(dp2281
g73
I3
ssg74
g2275
sg67
(lp2282
S'2'
asbasbasbag60
(g76
g62
NtRp2283
(dp2284
g65
(dp2285
sg74
g2267
sg67
(lp2286
g60
(g81
g62
NtRp2287
(dp2288
g65
(dp2289
sg74
g2283
sg67
(lp2290
g60
(g61
g62
NtRp2291
(dp2292
g65
(dp2293
g73
I3
ssg74
g2287
sg67
(lp2294
S'0'
asbasbasbag60
(g76
g62
NtRp2295
(dp2296
g65
(dp2297
sg74
g2267
sg67
(lp2298
g60
(g81
g62
NtRp2299
(dp2300
g65
(dp2301
sg74
g2295
sg67
(lp2302
g60
(g61
g62
NtRp2303
(dp2304
g65
(dp2305
g73
I3
ssg74
g2299
sg67
(lp2306
S'9'
asbasbasbag60
(g76
g62
NtRp2307
(dp2308
g65
(dp2309
sg74
g2267
sg67
(lp2310
g60
(g81
g62
NtRp2311
(dp2312
g65
(dp2313
sg74
g2307
sg67
(lp2314
g60
(g61
g62
NtRp2315
(dp2316
g65
(dp2317
g73
I3
ssg74
g2311
sg67
(lp2318
S'datetime.datetime(2012, 9, 13, 23, 51, 30)'
p2319
asbasbasbag60
(g76
g62
NtRp2320
(dp2321
g65
(dp2322
sg74
g2267
sg67
(lp2323
g60
(g81
g62
NtRp2324
(dp2325
g65
(dp2326
sg74
g2320
sg67
(lp2327
g60
(g61
g62
NtRp2328
(dp2329
g65
(dp2330
g73
I3
ssg74
g2324
sg67
(lp2331
g1722
asbasbasbasbasbasbasbasbasbasbasbag60
(g76
g62
NtRp2332
(dp2333
g65
(dp2334
sg74
g70
sg67
(lp2335
g60
(g81
g62
NtRp2336
(dp2337
g65
(dp2338
g85
g86
ssg74
g2332
sg67
(lp2339
S'is_https'
p2340
asbag60
(g81
g62
NtRp2341
(dp2342
g65
(dp2343
g92
g93
ssg74
g2332
sg67
(lp2344
S':'
asbag60
(g81
g62
NtRp2345
(dp2346
g65
(dp2347
sg74
g2332
sg67
(lp2348
g60
(g61
g62
NtRp2349
(dp2350
g65
(dp2351
g73
I5
ssg74
g2345
sg67
(lp2352
g103
asbasbasbag60
(g76
g62
NtRp2353
(dp2354
g65
(dp2355
sg74
g70
sg67
(lp2356
g60
(g81
g62
NtRp2357
(dp2358
g65
(dp2359
g85
g86
ssg74
g2353
sg67
(lp2360
S'is_local'
p2361
asbag60
(g81
g62
NtRp2362
(dp2363
g65
(dp2364
g92
g93
ssg74
g2353
sg67
(lp2365
S':'
asbag60
(g81
g62
NtRp2366
(dp2367
g65
(dp2368
sg74
g2353
sg67
(lp2369
g60
(g61
g62
NtRp2370
(dp2371
g65
(dp2372
g73
I5
ssg74
g2366
sg67
(lp2373
g1831
asbasbasbag60
(g76
g62
NtRp2374
(dp2375
g65
(dp2376
sg74
g70
sg67
(lp2377
g60
(g81
g62
NtRp2378
(dp2379
g65
(dp2380
g85
g86
ssg74
g2374
sg67
(lp2381
S'is_restful'
p2382
asbag60
(g81
g62
NtRp2383
(dp2384
g65
(dp2385
g92
g93
ssg74
g2374
sg67
(lp2386
S':'
asbag60
(g81
g62
NtRp2387
(dp2388
g65
(dp2389
sg74
g2374
sg67
(lp2390
g60
(g61
g62
NtRp2391
(dp2392
g65
(dp2393
g73
I5
ssg74
g2387
sg67
(lp2394
g103
asbasbasbag60
(g76
g62
NtRp2395
(dp2396
g65
(dp2397
sg74
g70
sg67
(lp2398
g60
(g81
g62
NtRp2399
(dp2400
g65
(dp2401
g85
g86
ssg74
g2395
sg67
(lp2402
S'now'
p2403
asbag60
(g81
g62
NtRp2404
(dp2405
g65
(dp2406
g92
g93
ssg74
g2395
sg67
(lp2407
S':'
asbag60
(g81
g62
NtRp2408
(dp2409
g65
(dp2410
sg74
g2395
sg67
(lp2411
g60
(g61
g62
NtRp2412
(dp2413
g65
(dp2414
g73
I5
ssg74
g2408
sg67
(lp2415
S'datetime.datetime(2012, 10, 17, 9, 41, 28, 646635)'
p2416
asbasbasbag60
(g76
g62
NtRp2417
(dp2418
g65
(dp2419
sg74
g70
sg67
(lp2420
g60
(g81
g62
NtRp2421
(dp2422
g65
(dp2423
g85
g86
ssg74
g2417
sg67
(lp2424
S'post_vars'
p2425
asbag60
(g81
g62
NtRp2426
(dp2427
g65
(dp2428
g92
g93
ssg74
g2417
sg67
(lp2429
S':'
asbag60
(g81
g62
NtRp2430
(dp2431
g65
(dp2432
sg74
g2417
sg67
(lp2433
g60
(g61
g62
NtRp2434
(dp2435
g65
(dp2436
g73
I5
ssg74
g2430
sg67
(lp2437
g60
(g69
g62
NtRp2438
(dp2439
g65
(dp2440
g73
I4
ssg74
Nsg67
(lp2441
sbasbasbasbag60
(g76
g62
NtRp2442
(dp2443
g65
(dp2444
sg74
g70
sg67
(lp2445
g60
(g81
g62
NtRp2446
(dp2447
g65
(dp2448
g85
g86
ssg74
g2442
sg67
(lp2449
S'raw_args'
p2450
asbag60
(g81
g62
NtRp2451
(dp2452
g65
(dp2453
g92
g93
ssg74
g2442
sg67
(lp2454
S':'
asbag60
(g81
g62
NtRp2455
(dp2456
g65
(dp2457
sg74
g2442
sg67
(lp2458
g60
(g61
g62
NtRp2459
(dp2460
g65
(dp2461
g73
I5
ssg74
g2455
sg67
(lp2462
S'None'
p2463
asbasbasbag60
(g76
g62
NtRp2464
(dp2465
g65
(dp2466
sg74
g70
sg67
(lp2467
g60
(g81
g62
NtRp2468
(dp2469
g65
(dp2470
g85
g86
ssg74
g2464
sg67
(lp2471
S'raw_extension'
p2472
asbag60
(g81
g62
NtRp2473
(dp2474
g65
(dp2475
g92
g93
ssg74
g2464
sg67
(lp2476
S':'
asbag60
(g81
g62
NtRp2477
(dp2478
g65
(dp2479
sg74
g2464
sg67
(lp2480
g60
(g61
g62
NtRp2481
(dp2482
g65
(dp2483
g73
I5
ssg74
g2477
sg67
(lp2484
S'None'
p2485
asbasbasbag60
(g76
g62
NtRp2486
(dp2487
g65
(dp2488
sg74
g70
sg67
(lp2489
g60
(g81
g62
NtRp2490
(dp2491
g65
(dp2492
g85
g86
ssg74
g2486
sg67
(lp2493
S'url'
p2494
asbag60
(g81
g62
NtRp2495
(dp2496
g65
(dp2497
g92
g93
ssg74
g2486
sg67
(lp2498
S':'
asbag60
(g81
g62
NtRp2499
(dp2500
g65
(dp2501
sg74
g2486
sg67
(lp2502
g60
(g61
g62
NtRp2503
(dp2504
g65
(dp2505
g73
I5
ssg74
g2499
sg67
(lp2506
g1376
asbasbasbag60
(g76
g62
NtRp2507
(dp2508
g65
(dp2509
sg74
g70
sg67
(lp2510
g60
(g81
g62
NtRp2511
(dp2512
g65
(dp2513
g85
g86
ssg74
g2507
sg67
(lp2514
S'utcnow'
p2515
asbag60
(g81
g62
NtRp2516
(dp2517
g65
(dp2518
g92
g93
ssg74
g2507
sg67
(lp2519
S':'
asbag60
(g81
g62
NtRp2520
(dp2521
g65
(dp2522
sg74
g2507
sg67
(lp2523
g60
(g61
g62
NtRp2524
(dp2525
g65
(dp2526
g73
I5
ssg74
g2520
sg67
(lp2527
S'datetime.datetime(2012, 10, 17, 7, 41, 28, 646646)'
p2528
asbasbasbag60
(g76
g62
NtRp2529
(dp2530
g65
(dp2531
sg74
g70
sg67
(lp2532
g60
(g81
g62
NtRp2533
(dp2534
g65
(dp2535
g85
g86
ssg74
g2529
sg67
(lp2536
S'uuid'
p2537
asbag60
(g81
g62
NtRp2538
(dp2539
g65
(dp2540
g92
g93
ssg74
g2529
sg67
(lp2541
S':'
asbag60
(g81
g62
NtRp2542
(dp2543
g65
(dp2544
sg74
g2529
sg67
(lp2545
g60
(g61
g62
NtRp2546
(dp2547
g65
(dp2548
g73
I5
ssg74
g2542
sg67
(lp2549
S'miFacebook/127.0.0.1.2012-10-17.09-41-28.834a4187-3cc3-4d11-b4ee-668419597df6'
p2550
asbasbasbag60
(g76
g62
NtRp2551
(dp2552
g65
(dp2553
sg74
g70
sg67
(lp2554
g60
(g81
g62
NtRp2555
(dp2556
g65
(dp2557
g85
g86
ssg74
g2551
sg67
(lp2558
S'vars'
p2559
asbag60
(g81
g62
NtRp2560
(dp2561
g65
(dp2562
g92
g93
ssg74
g2551
sg67
(lp2563
S':'
asbag60
(g81
g62
NtRp2564
(dp2565
g65
(dp2566
sg74
g2551
sg67
(lp2567
g60
(g61
g62
NtRp2568
(dp2569
g65
(dp2570
g73
I5
ssg74
g2564
sg67
(lp2571
g60
(g69
g62
NtRp2572
(dp2573
g65
(dp2574
g73
I4
ssg74
Nsg67
(lp2575
sbasbasbasbag60
(g76
g62
NtRp2576
(dp2577
g65
(dp2578
sg74
g70
sg67
(lp2579
g60
(g81
g62
NtRp2580
(dp2581
g65
(dp2582
g85
g86
ssg74
g2576
sg67
(lp2583
S'wsgi'
p2584
asbag60
(g81
g62
NtRp2585
(dp2586
g65
(dp2587
g92
g93
ssg74
g2576
sg67
(lp2588
S':'
asbag60
(g81
g62
NtRp2589
(dp2590
g65
(dp2591
sg74
g2576
sg67
(lp2592
g60
(g61
g62
NtRp2593
(dp2594
g65
(dp2595
g73
I5
ssg74
g2589
sg67
(lp2596
g60
(g69
g62
NtRp2597
(dp2598
g65
(dp2599
g73
I4
ssg74
Nsg67
(lp2600
g60
(g76
g62
NtRp2601
(dp2602
g65
(dp2603
sg74
g2597
sg67
(lp2604
g60
(g81
g62
NtRp2605
(dp2606
g65
(dp2607
g85
g86
ssg74
g2601
sg67
(lp2608
S'environ'
p2609
asbag60
(g81
g62
NtRp2610
(dp2611
g65
(dp2612
g92
g93
ssg74
g2601
sg67
(lp2613
S':'
asbag60
(g81
g62
NtRp2614
(dp2615
g65
(dp2616
sg74
g2601
sg67
(lp2617
g60
(g61
g62
NtRp2618
(dp2619
g65
(dp2620
g73
I4
ssg74
g2614
sg67
(lp2621
g60
(g69
g62
NtRp2622
(dp2623
g65
(dp2624
g73
I3
ssg74
Nsg67
(lp2625
g60
(g76
g62
NtRp2626
(dp2627
g65
(dp2628
sg74
g2622
sg67
(lp2629
g60
(g81
g62
NtRp2630
(dp2631
g65
(dp2632
g85
g86
ssg74
g2626
sg67
(lp2633
S'HTTP_ACCEPT'
p2634
asbag60
(g81
g62
NtRp2635
(dp2636
g65
(dp2637
g92
g93
ssg74
g2626
sg67
(lp2638
S':'
asbag60
(g81
g62
NtRp2639
(dp2640
g65
(dp2641
sg74
g2626
sg67
(lp2642
g60
(g61
g62
NtRp2643
(dp2644
g65
(dp2645
g73
I3
ssg74
g2639
sg67
(lp2646
g1136
asbasbasbag60
(g76
g62
NtRp2647
(dp2648
g65
(dp2649
sg74
g2622
sg67
(lp2650
g60
(g81
g62
NtRp2651
(dp2652
g65
(dp2653
g85
g86
ssg74
g2647
sg67
(lp2654
S'HTTP_ACCEPT_CHARSET'
p2655
asbag60
(g81
g62
NtRp2656
(dp2657
g65
(dp2658
g92
g93
ssg74
g2647
sg67
(lp2659
S':'
asbag60
(g81
g62
NtRp2660
(dp2661
g65
(dp2662
sg74
g2647
sg67
(lp2663
g60
(g61
g62
NtRp2664
(dp2665
g65
(dp2666
g73
I3
ssg74
g2660
sg67
(lp2667
g1158
asbasbasbag60
(g76
g62
NtRp2668
(dp2669
g65
(dp2670
sg74
g2622
sg67
(lp2671
g60
(g81
g62
NtRp2672
(dp2673
g65
(dp2674
g85
g86
ssg74
g2668
sg67
(lp2675
S'HTTP_ACCEPT_ENCODING'
p2676
asbag60
(g81
g62
NtRp2677
(dp2678
g65
(dp2679
g92
g93
ssg74
g2668
sg67
(lp2680
S':'
asbag60
(g81
g62
NtRp2681
(dp2682
g65
(dp2683
sg74
g2668
sg67
(lp2684
g60
(g61
g62
NtRp2685
(dp2686
g65
(dp2687
g73
I3
ssg74
g2681
sg67
(lp2688
g1180
asbasbasbag60
(g76
g62
NtRp2689
(dp2690
g65
(dp2691
sg74
g2622
sg67
(lp2692
g60
(g81
g62
NtRp2693
(dp2694
g65
(dp2695
g85
g86
ssg74
g2689
sg67
(lp2696
S'HTTP_ACCEPT_LANGUAGE'
p2697
asbag60
(g81
g62
NtRp2698
(dp2699
g65
(dp2700
g92
g93
ssg74
g2689
sg67
(lp2701
S':'
asbag60
(g81
g62
NtRp2702
(dp2703
g65
(dp2704
sg74
g2689
sg67
(lp2705
g60
(g61
g62
NtRp2706
(dp2707
g65
(dp2708
g73
I3
ssg74
g2702
sg67
(lp2709
g1202
asbasbasbag60
(g76
g62
NtRp2710
(dp2711
g65
(dp2712
sg74
g2622
sg67
(lp2713
g60
(g81
g62
NtRp2714
(dp2715
g65
(dp2716
g85
g86
ssg74
g2710
sg67
(lp2717
S'HTTP_CACHE_CONTROL'
p2718
asbag60
(g81
g62
NtRp2719
(dp2720
g65
(dp2721
g92
g93
ssg74
g2710
sg67
(lp2722
S':'
asbag60
(g81
g62
NtRp2723
(dp2724
g65
(dp2725
sg74
g2710
sg67
(lp2726
g60
(g61
g62
NtRp2727
(dp2728
g65
(dp2729
g73
I3
ssg74
g2723
sg67
(lp2730
g1224
asbasbasbag60
(g76
g62
NtRp2731
(dp2732
g65
(dp2733
sg74
g2622
sg67
(lp2734
g60
(g81
g62
NtRp2735
(dp2736
g65
(dp2737
g85
g86
ssg74
g2731
sg67
(lp2738
S'HTTP_CONNECTION'
p2739
asbag60
(g81
g62
NtRp2740
(dp2741
g65
(dp2742
g92
g93
ssg74
g2731
sg67
(lp2743
S':'
asbag60
(g81
g62
NtRp2744
(dp2745
g65
(dp2746
sg74
g2731
sg67
(lp2747
g60
(g61
g62
NtRp2748
(dp2749
g65
(dp2750
g73
I3
ssg74
g2744
sg67
(lp2751
g1246
asbasbasbag60
(g76
g62
NtRp2752
(dp2753
g65
(dp2754
sg74
g2622
sg67
(lp2755
g60
(g81
g62
NtRp2756
(dp2757
g65
(dp2758
g85
g86
ssg74
g2752
sg67
(lp2759
S'HTTP_COOKIE'
p2760
asbag60
(g81
g62
NtRp2761
(dp2762
g65
(dp2763
g92
g93
ssg74
g2752
sg67
(lp2764
S':'
asbag60
(g81
g62
NtRp2765
(dp2766
g65
(dp2767
sg74
g2752
sg67
(lp2768
g60
(g61
g62
NtRp2769
(dp2770
g65
(dp2771
g73
I3
ssg74
g2765
sg67
(lp2772
g1268
asbasbasbag60
(g76
g62
NtRp2773
(dp2774
g65
(dp2775
sg74
g2622
sg67
(lp2776
g60
(g81
g62
NtRp2777
(dp2778
g65
(dp2779
g85
g86
ssg74
g2773
sg67
(lp2780
S'HTTP_HOST'
p2781
asbag60
(g81
g62
NtRp2782
(dp2783
g65
(dp2784
g92
g93
ssg74
g2773
sg67
(lp2785
S':'
asbag60
(g81
g62
NtRp2786
(dp2787
g65
(dp2788
sg74
g2773
sg67
(lp2789
g60
(g61
g62
NtRp2790
(dp2791
g65
(dp2792
g73
I3
ssg74
g2786
sg67
(lp2793
g1290
asbasbasbag60
(g76
g62
NtRp2794
(dp2795
g65
(dp2796
sg74
g2622
sg67
(lp2797
g60
(g81
g62
NtRp2798
(dp2799
g65
(dp2800
g85
g86
ssg74
g2794
sg67
(lp2801
S'HTTP_USER_AGENT'
p2802
asbag60
(g81
g62
NtRp2803
(dp2804
g65
(dp2805
g92
g93
ssg74
g2794
sg67
(lp2806
S':'
asbag60
(g81
g62
NtRp2807
(dp2808
g65
(dp2809
sg74
g2794
sg67
(lp2810
g60
(g61
g62
NtRp2811
(dp2812
g65
(dp2813
g73
I3
ssg74
g2807
sg67
(lp2814
g1312
asbasbasbag60
(g76
g62
NtRp2815
(dp2816
g65
(dp2817
sg74
g2622
sg67
(lp2818
g60
(g81
g62
NtRp2819
(dp2820
g65
(dp2821
g85
g86
ssg74
g2815
sg67
(lp2822
S'PATH_INFO'
p2823
asbag60
(g81
g62
NtRp2824
(dp2825
g65
(dp2826
g92
g93
ssg74
g2815
sg67
(lp2827
S':'
asbag60
(g81
g62
NtRp2828
(dp2829
g65
(dp2830
sg74
g2815
sg67
(lp2831
g60
(g61
g62
NtRp2832
(dp2833
g65
(dp2834
g73
I3
ssg74
g2828
sg67
(lp2835
g1376
asbasbasbag60
(g76
g62
NtRp2836
(dp2837
g65
(dp2838
sg74
g2622
sg67
(lp2839
g60
(g81
g62
NtRp2840
(dp2841
g65
(dp2842
g85
g86
ssg74
g2836
sg67
(lp2843
S'QUERY_STRING'
p2844
asbag60
(g81
g62
NtRp2845
(dp2846
g65
(dp2847
g92
g93
ssg74
g2836
sg67
(lp2848
S':'
asbag60
(g81
g62
NtRp2849
(dp2850
g65
(dp2851
sg74
g2836
sg67
(lp2852
g60
(g61
g62
NtRp2853
(dp2854
g65
(dp2855
g73
I3
ssg74
g2849
sg67
(lp2856
S''
asbasbasbag60
(g76
g62
NtRp2857
(dp2858
g65
(dp2859
sg74
g2622
sg67
(lp2860
g60
(g81
g62
NtRp2861
(dp2862
g65
(dp2863
g85
g86
ssg74
g2857
sg67
(lp2864
S'REMOTE_ADDR'
p2865
asbag60
(g81
g62
NtRp2866
(dp2867
g65
(dp2868
g92
g93
ssg74
g2857
sg67
(lp2869
S':'
asbag60
(g81
g62
NtRp2870
(dp2871
g65
(dp2872
sg74
g2857
sg67
(lp2873
g60
(g61
g62
NtRp2874
(dp2875
g65
(dp2876
g73
I3
ssg74
g2870
sg67
(lp2877
g215
asbasbasbag60
(g76
g62
NtRp2878
(dp2879
g65
(dp2880
sg74
g2622
sg67
(lp2881
g60
(g81
g62
NtRp2882
(dp2883
g65
(dp2884
g85
g86
ssg74
g2878
sg67
(lp2885
S'REMOTE_PORT'
p2886
asbag60
(g81
g62
NtRp2887
(dp2888
g65
(dp2889
g92
g93
ssg74
g2878
sg67
(lp2890
S':'
asbag60
(g81
g62
NtRp2891
(dp2892
g65
(dp2893
sg74
g2878
sg67
(lp2894
g60
(g61
g62
NtRp2895
(dp2896
g65
(dp2897
g73
I3
ssg74
g2891
sg67
(lp2898
g1440
asbasbasbag60
(g76
g62
NtRp2899
(dp2900
g65
(dp2901
sg74
g2622
sg67
(lp2902
g60
(g81
g62
NtRp2903
(dp2904
g65
(dp2905
g85
g86
ssg74
g2899
sg67
(lp2906
S'REQUEST_METHOD'
p2907
asbag60
(g81
g62
NtRp2908
(dp2909
g65
(dp2910
g92
g93
ssg74
g2899
sg67
(lp2911
S':'
asbag60
(g81
g62
NtRp2912
(dp2913
g65
(dp2914
sg74
g2899
sg67
(lp2915
g60
(g61
g62
NtRp2916
(dp2917
g65
(dp2918
g73
I3
ssg74
g2912
sg67
(lp2919
g1462
asbasbasbag60
(g76
g62
NtRp2920
(dp2921
g65
(dp2922
sg74
g2622
sg67
(lp2923
g60
(g81
g62
NtRp2924
(dp2925
g65
(dp2926
g85
g86
ssg74
g2920
sg67
(lp2927
S'REQUEST_URI'
p2928
asbag60
(g81
g62
NtRp2929
(dp2930
g65
(dp2931
g92
g93
ssg74
g2920
sg67
(lp2932
S':'
asbag60
(g81
g62
NtRp2933
(dp2934
g65
(dp2935
sg74
g2920
sg67
(lp2936
g60
(g61
g62
NtRp2937
(dp2938
g65
(dp2939
g73
I3
ssg74
g2933
sg67
(lp2940
g1376
asbasbasbag60
(g76
g62
NtRp2941
(dp2942
g65
(dp2943
sg74
g2622
sg67
(lp2944
g60
(g81
g62
NtRp2945
(dp2946
g65
(dp2947
g85
g86
ssg74
g2941
sg67
(lp2948
S'SCRIPT_NAME'
p2949
asbag60
(g81
g62
NtRp2950
(dp2951
g65
(dp2952
g92
g93
ssg74
g2941
sg67
(lp2953
S':'
asbag60
(g81
g62
NtRp2954
(dp2955
g65
(dp2956
sg74
g2941
sg67
(lp2957
g60
(g61
g62
NtRp2958
(dp2959
g65
(dp2960
g73
I3
ssg74
g2954
sg67
(lp2961
S''
asbasbasbag60
(g76
g62
NtRp2962
(dp2963
g65
(dp2964
sg74
g2622
sg67
(lp2965
g60
(g81
g62
NtRp2966
(dp2967
g65
(dp2968
g85
g86
ssg74
g2962
sg67
(lp2969
S'SERVER_NAME'
p2970
asbag60
(g81
g62
NtRp2971
(dp2972
g65
(dp2973
g92
g93
ssg74
g2962
sg67
(lp2974
S':'
asbag60
(g81
g62
NtRp2975
(dp2976
g65
(dp2977
sg74
g2962
sg67
(lp2978
g60
(g61
g62
NtRp2979
(dp2980
g65
(dp2981
g73
I3
ssg74
g2975
sg67
(lp2982
g1526
asbasbasbag60
(g76
g62
NtRp2983
(dp2984
g65
(dp2985
sg74
g2622
sg67
(lp2986
g60
(g81
g62
NtRp2987
(dp2988
g65
(dp2989
g85
g86
ssg74
g2983
sg67
(lp2990
S'SERVER_PORT'
p2991
asbag60
(g81
g62
NtRp2992
(dp2993
g65
(dp2994
g92
g93
ssg74
g2983
sg67
(lp2995
S':'
asbag60
(g81
g62
NtRp2996
(dp2997
g65
(dp2998
sg74
g2983
sg67
(lp2999
g60
(g61
g62
NtRp3000
(dp3001
g65
(dp3002
g73
I3
ssg74
g2996
sg67
(lp3003
g1548
asbasbasbag60
(g76
g62
NtRp3004
(dp3005
g65
(dp3006
sg74
g2622
sg67
(lp3007
g60
(g81
g62
NtRp3008
(dp3009
g65
(dp3010
g85
g86
ssg74
g3004
sg67
(lp3011
S'SERVER_PROTOCOL'
p3012
asbag60
(g81
g62
NtRp3013
(dp3014
g65
(dp3015
g92
g93
ssg74
g3004
sg67
(lp3016
S':'
asbag60
(g81
g62
NtRp3017
(dp3018
g65
(dp3019
sg74
g3004
sg67
(lp3020
g60
(g61
g62
NtRp3021
(dp3022
g65
(dp3023
g73
I3
ssg74
g3017
sg67
(lp3024
g1570
asbasbasbag60
(g76
g62
NtRp3025
(dp3026
g65
(dp3027
sg74
g2622
sg67
(lp3028
g60
(g81
g62
NtRp3029
(dp3030
g65
(dp3031
g85
g86
ssg74
g3025
sg67
(lp3032
S'SERVER_SOFTWARE'
p3033
asbag60
(g81
g62
NtRp3034
(dp3035
g65
(dp3036
g92
g93
ssg74
g3025
sg67
(lp3037
S':'
asbag60
(g81
g62
NtRp3038
(dp3039
g65
(dp3040
sg74
g3025
sg67
(lp3041
g60
(g61
g62
NtRp3042
(dp3043
g65
(dp3044
g73
I3
ssg74
g3038
sg67
(lp3045
g1592
asbasbasbag60
(g76
g62
NtRp3046
(dp3047
g65
(dp3048
sg74
g2622
sg67
(lp3049
g60
(g81
g62
NtRp3050
(dp3051
g65
(dp3052
g85
g86
ssg74
g3046
sg67
(lp3053
S'wsgi.errors'
p3054
asbag60
(g81
g62
NtRp3055
(dp3056
g65
(dp3057
g92
g93
ssg74
g3046
sg67
(lp3058
S':'
asbag60
(g81
g62
NtRp3059
(dp3060
g65
(dp3061
sg74
g3046
sg67
(lp3062
g60
(g61
g62
NtRp3063
(dp3064
g65
(dp3065
g73
I3
ssg74
g3059
sg67
(lp3066
S"<open file '<stderr>', mode 'w' at 0x540b0>"
p3067
asbasbasbag60
(g76
g62
NtRp3068
(dp3069
g65
(dp3070
sg74
g2622
sg67
(lp3071
g60
(g81
g62
NtRp3072
(dp3073
g65
(dp3074
g85
g86
ssg74
g3068
sg67
(lp3075
S'wsgi.file_wrapper'
p3076
asbag60
(g81
g62
NtRp3077
(dp3078
g65
(dp3079
g92
g93
ssg74
g3068
sg67
(lp3080
S':'
asbag60
(g81
g62
NtRp3081
(dp3082
g65
(dp3083
sg74
g3068
sg67
(lp3084
g60
(g61
g62
NtRp3085
(dp3086
g65
(dp3087
g73
I3
ssg74
g3081
sg67
(lp3088
S'<class wsgiref.util.FileWrapper at 0x599c060>'
p3089
asbasbasbag60
(g76
g62
NtRp3090
(dp3091
g65
(dp3092
sg74
g2622
sg67
(lp3093
g60
(g81
g62
NtRp3094
(dp3095
g65
(dp3096
g85
g86
ssg74
g3090
sg67
(lp3097
S'wsgi.input'
p3098
asbag60
(g81
g62
NtRp3099
(dp3100
g65
(dp3101
g92
g93
ssg74
g3090
sg67
(lp3102
S':'
asbag60
(g81
g62
NtRp3103
(dp3104
g65
(dp3105
sg74
g3090
sg67
(lp3106
g60
(g61
g62
NtRp3107
(dp3108
g65
(dp3109
g73
I3
ssg74
g3103
sg67
(lp3110
S'<cStringIO.StringO object at 0xa63e5e0>'
p3111
asbasbasbag60
(g76
g62
NtRp3112
(dp3113
g65
(dp3114
sg74
g2622
sg67
(lp3115
g60
(g81
g62
NtRp3116
(dp3117
g65
(dp3118
g85
g86
ssg74
g3112
sg67
(lp3119
S'wsgi.multiprocess'
p3120
asbag60
(g81
g62
NtRp3121
(dp3122
g65
(dp3123
g92
g93
ssg74
g3112
sg67
(lp3124
S':'
asbag60
(g81
g62
NtRp3125
(dp3126
g65
(dp3127
sg74
g3112
sg67
(lp3128
g60
(g61
g62
NtRp3129
(dp3130
g65
(dp3131
g73
I3
ssg74
g3125
sg67
(lp3132
g103
asbasbasbag60
(g76
g62
NtRp3133
(dp3134
g65
(dp3135
sg74
g2622
sg67
(lp3136
g60
(g81
g62
NtRp3137
(dp3138
g65
(dp3139
g85
g86
ssg74
g3133
sg67
(lp3140
S'wsgi.multithread'
p3141
asbag60
(g81
g62
NtRp3142
(dp3143
g65
(dp3144
g92
g93
ssg74
g3133
sg67
(lp3145
S':'
asbag60
(g81
g62
NtRp3146
(dp3147
g65
(dp3148
sg74
g3133
sg67
(lp3149
g60
(g61
g62
NtRp3150
(dp3151
g65
(dp3152
g73
I3
ssg74
g3146
sg67
(lp3153
g1831
asbasbasbag60
(g76
g62
NtRp3154
(dp3155
g65
(dp3156
sg74
g2622
sg67
(lp3157
g60
(g81
g62
NtRp3158
(dp3159
g65
(dp3160
g85
g86
ssg74
g3154
sg67
(lp3161
S'wsgi.run_once'
p3162
asbag60
(g81
g62
NtRp3163
(dp3164
g65
(dp3165
g92
g93
ssg74
g3154
sg67
(lp3166
S':'
asbag60
(g81
g62
NtRp3167
(dp3168
g65
(dp3169
sg74
g3154
sg67
(lp3170
g60
(g61
g62
NtRp3171
(dp3172
g65
(dp3173
g73
I3
ssg74
g3167
sg67
(lp3174
g103
asbasbasbag60
(g76
g62
NtRp3175
(dp3176
g65
(dp3177
sg74
g2622
sg67
(lp3178
g60
(g81
g62
NtRp3179
(dp3180
g65
(dp3181
g85
g86
ssg74
g3175
sg67
(lp3182
S'wsgi.url_scheme'
p3183
asbag60
(g81
g62
NtRp3184
(dp3185
g65
(dp3186
g92
g93
ssg74
g3175
sg67
(lp3187
S':'
asbag60
(g81
g62
NtRp3188
(dp3189
g65
(dp3190
sg74
g3175
sg67
(lp3191
g60
(g61
g62
NtRp3192
(dp3193
g65
(dp3194
g73
I3
ssg74
g3188
sg67
(lp3195
g1874
asbasbasbag60
(g76
g62
NtRp3196
(dp3197
g65
(dp3198
sg74
g2622
sg67
(lp3199
g60
(g81
g62
NtRp3200
(dp3201
g65
(dp3202
g85
g86
ssg74
g3196
sg67
(lp3203
S'wsgi.version'
p3204
asbag60
(g81
g62
NtRp3205
(dp3206
g65
(dp3207
g92
g93
ssg74
g3196
sg67
(lp3208
S':'
asbag60
(g81
g62
NtRp3209
(dp3210
g65
(dp3211
sg74
g3196
sg67
(lp3212
g60
(g61
g62
NtRp3213
(dp3214
g65
(dp3215
g73
I3
ssg74
g3209
sg67
(lp3216
S'1'
asbasbasbasbasbasbasbasbasbasbasbasbasbsS'frames'
p3217
(lp3218
(dp3219
S'file'
p3220
S'/Applications/web2py.app/Contents/Resources/gluon/restricted.py'
p3221
sS'dump'
p3222
(dp3223
sS'lnum'
p3224
I208
sS'lines'
p3225
(dp3226
sS'call'
p3227
S"(code='# -*- coding: utf-8 -*-\\n# this file is released ...lete()\\n\\nresponse._vars=response._caller(friends)\\n', environment={'A': <class 'gluon.html.A'>, 'Auth': <class 'gluon.tools.Auth'>, 'B': <class 'gluon.html.B'>, 'BEAUTIFY': <class 'gluon.html.BEAUTIFY'>, 'BODY': <class 'gluon.html.BODY'>, 'BR': <class 'gluon.html.BR'>, 'BUTTON': <class 'gluon.html.BUTTON'>, 'CAT': <class 'gluon.html.CAT'>, 'CENTER': <class 'gluon.html.CENTER'>, 'CLEANUP': <class 'gluon.validators.CLEANUP'>, ...}, layer='/Applications/web2py.app/Contents/Resources/applications/miFacebook/controllers/default.py')"
p3228
sS'func'
p3229
S'restricted'
p3230
sa(dp3231
g3220
S'/Applications/web2py.app/Contents/Resources/gluon/restricted.py'
p3232
sg3222
(dp3233
sg3224
I193
sg3225
(dp3234
sg3227
S"(code='# -*- coding: utf-8 -*-\\n# this file is released ...lete()\\n\\nresponse._vars=response._caller(friends)\\n', layer='/Applications/web2py.app/Contents/Resources/applications/miFacebook/controllers/default.py')"
p3235
sg3229
S'compile2'
p3236
sasS'pyver'
p3237
S'Python 2.5.1: /Applications/web2py.app/Contents/MacOS/python'
p3238
sS'session'
p3239
g60
(g61
g62
NtRp3240
(dp3241
g65
(dp3242
sg67
(lp3243
g60
(g69
g62
NtRp3244
(dp3245
g65
(dp3246
g73
I5
ssg74
Nsg67
(lp3247
g60
(g76
g62
NtRp3248
(dp3249
g65
(dp3250
sg74
g3244
sg67
(lp3251
g60
(g81
g62
NtRp3252
(dp3253
g65
(dp3254
g85
g86
ssg74
g3248
sg67
(lp3255
S'auth'
p3256
asbag60
(g81
g62
NtRp3257
(dp3258
g65
(dp3259
g92
g93
ssg74
g3248
sg67
(lp3260
S':'
asbag60
(g81
g62
NtRp3261
(dp3262
g65
(dp3263
sg74
g3248
sg67
(lp3264
g60
(g61
g62
NtRp3265
(dp3266
g65
(dp3267
g73
I5
ssg74
g3261
sg67
(lp3268
g60
(g69
g62
NtRp3269
(dp3270
g65
(dp3271
g73
I4
ssg74
Nsg67
(lp3272
g60
(g76
g62
NtRp3273
(dp3274
g65
(dp3275
sg74
g3269
sg67
(lp3276
g60
(g81
g62
NtRp3277
(dp3278
g65
(dp3279
g85
g86
ssg74
g3273
sg67
(lp3280
S'expiration'
p3281
asbag60
(g81
g62
NtRp3282
(dp3283
g65
(dp3284
g92
g93
ssg74
g3273
sg67
(lp3285
S':'
asbag60
(g81
g62
NtRp3286
(dp3287
g65
(dp3288
sg74
g3273
sg67
(lp3289
g60
(g61
g62
NtRp3290
(dp3291
g65
(dp3292
g73
I4
ssg74
g3286
sg67
(lp3293
S'3600'
p3294
asbasbasbag60
(g76
g62
NtRp3295
(dp3296
g65
(dp3297
sg74
g3269
sg67
(lp3298
g60
(g81
g62
NtRp3299
(dp3300
g65
(dp3301
g85
g86
ssg74
g3295
sg67
(lp3302
S'hmac_key'
p3303
asbag60
(g81
g62
NtRp3304
(dp3305
g65
(dp3306
g92
g93
ssg74
g3295
sg67
(lp3307
S':'
asbag60
(g81
g62
NtRp3308
(dp3309
g65
(dp3310
sg74
g3295
sg67
(lp3311
g60
(g61
g62
NtRp3312
(dp3313
g65
(dp3314
g73
I4
ssg74
g3308
sg67
(lp3315
S'3b4309f0-6be8-4d90-bf7f-a15ad83fee22'
p3316
asbasbasbag60
(g76
g62
NtRp3317
(dp3318
g65
(dp3319
sg74
g3269
sg67
(lp3320
g60
(g81
g62
NtRp3321
(dp3322
g65
(dp3323
g85
g86
ssg74
g3317
sg67
(lp3324
S'last_visit'
p3325
asbag60
(g81
g62
NtRp3326
(dp3327
g65
(dp3328
g92
g93
ssg74
g3317
sg67
(lp3329
S':'
asbag60
(g81
g62
NtRp3330
(dp3331
g65
(dp3332
sg74
g3317
sg67
(lp3333
g60
(g61
g62
NtRp3334
(dp3335
g65
(dp3336
g73
I4
ssg74
g3330
sg67
(lp3337
S'datetime.datetime(2012, 10, 17, 9, 41, 28, 646635)'
p3338
asbasbasbag60
(g76
g62
NtRp3339
(dp3340
g65
(dp3341
sg74
g3269
sg67
(lp3342
g60
(g81
g62
NtRp3343
(dp3344
g65
(dp3345
g85
g86
ssg74
g3339
sg67
(lp3346
S'user'
p3347
asbag60
(g81
g62
NtRp3348
(dp3349
g65
(dp3350
g92
g93
ssg74
g3339
sg67
(lp3351
S':'
asbag60
(g81
g62
NtRp3352
(dp3353
g65
(dp3354
sg74
g3339
sg67
(lp3355
g60
(g61
g62
NtRp3356
(dp3357
g65
(dp3358
g73
I4
ssg74
g3352
sg67
(lp3359
g60
(g69
g62
NtRp3360
(dp3361
g65
(dp3362
g73
I3
ssg74
Nsg67
(lp3363
g60
(g76
g62
NtRp3364
(dp3365
g65
(dp3366
sg74
g3360
sg67
(lp3367
g60
(g81
g62
NtRp3368
(dp3369
g65
(dp3370
g85
g86
ssg74
g3364
sg67
(lp3371
S'email'
p3372
asbag60
(g81
g62
NtRp3373
(dp3374
g65
(dp3375
g92
g93
ssg74
g3364
sg67
(lp3376
S':'
asbag60
(g81
g62
NtRp3377
(dp3378
g65
(dp3379
sg74
g3364
sg67
(lp3380
g60
(g61
g62
NtRp3381
(dp3382
g65
(dp3383
g73
I3
ssg74
g3377
sg67
(lp3384
S'alberto@abelabs.com'
p3385
asbasbasbag60
(g76
g62
NtRp3386
(dp3387
g65
(dp3388
sg74
g3360
sg67
(lp3389
g60
(g81
g62
NtRp3390
(dp3391
g65
(dp3392
g85
g86
ssg74
g3386
sg67
(lp3393
S'first_name'
p3394
asbag60
(g81
g62
NtRp3395
(dp3396
g65
(dp3397
g92
g93
ssg74
g3386
sg67
(lp3398
S':'
asbag60
(g81
g62
NtRp3399
(dp3400
g65
(dp3401
sg74
g3386
sg67
(lp3402
g60
(g61
g62
NtRp3403
(dp3404
g65
(dp3405
g73
I3
ssg74
g3399
sg67
(lp3406
S'Alberto'
p3407
asbasbasbag60
(g76
g62
NtRp3408
(dp3409
g65
(dp3410
sg74
g3360
sg67
(lp3411
g60
(g81
g62
NtRp3412
(dp3413
g65
(dp3414
g85
g86
ssg74
g3408
sg67
(lp3415
S'id'
p3416
asbag60
(g81
g62
NtRp3417
(dp3418
g65
(dp3419
g92
g93
ssg74
g3408
sg67
(lp3420
S':'
asbag60
(g81
g62
NtRp3421
(dp3422
g65
(dp3423
sg74
g3408
sg67
(lp3424
g60
(g61
g62
NtRp3425
(dp3426
g65
(dp3427
g73
I3
ssg74
g3421
sg67
(lp3428
S'4'
asbasbasbag60
(g76
g62
NtRp3429
(dp3430
g65
(dp3431
sg74
g3360
sg67
(lp3432
g60
(g81
g62
NtRp3433
(dp3434
g65
(dp3435
g85
g86
ssg74
g3429
sg67
(lp3436
S'last_name'
p3437
asbag60
(g81
g62
NtRp3438
(dp3439
g65
(dp3440
g92
g93
ssg74
g3429
sg67
(lp3441
S':'
asbag60
(g81
g62
NtRp3442
(dp3443
g65
(dp3444
sg74
g3429
sg67
(lp3445
g60
(g61
g62
NtRp3446
(dp3447
g65
(dp3448
g73
I3
ssg74
g3442
sg67
(lp3449
S'Gonz\xc3\xa1lez'
p3450
asbasbasbag60
(g76
g62
NtRp3451
(dp3452
g65
(dp3453
sg74
g3360
sg67
(lp3454
g60
(g81
g62
NtRp3455
(dp3456
g65
(dp3457
g85
g86
ssg74
g3451
sg67
(lp3458
S'password'
p3459
asbag60
(g81
g62
NtRp3460
(dp3461
g65
(dp3462
g92
g93
ssg74
g3451
sg67
(lp3463
S':'
asbag60
(g81
g62
NtRp3464
(dp3465
g65
(dp3466
sg74
g3451
sg67
(lp3467
g60
(g61
g62
NtRp3468
(dp3469
g65
(dp3470
g73
I3
ssg74
g3464
sg67
(lp3471
S'pbkdf2(1000,20,sha512)$a689e14e8eb7151f$359d520a303e59953a0925fe2139150c2ab1f35f'
p3472
asbasbasbag60
(g76
g62
NtRp3473
(dp3474
g65
(dp3475
sg74
g3360
sg67
(lp3476
g60
(g81
g62
NtRp3477
(dp3478
g65
(dp3479
g85
g86
ssg74
g3473
sg67
(lp3480
S'registration_id'
p3481
asbag60
(g81
g62
NtRp3482
(dp3483
g65
(dp3484
g92
g93
ssg74
g3473
sg67
(lp3485
S':'
asbag60
(g81
g62
NtRp3486
(dp3487
g65
(dp3488
sg74
g3473
sg67
(lp3489
g60
(g61
g62
NtRp3490
(dp3491
g65
(dp3492
g73
I3
ssg74
g3486
sg67
(lp3493
S''
asbasbasbag60
(g76
g62
NtRp3494
(dp3495
g65
(dp3496
sg74
g3360
sg67
(lp3497
g60
(g81
g62
NtRp3498
(dp3499
g65
(dp3500
g85
g86
ssg74
g3494
sg67
(lp3501
S'registration_key'
p3502
asbag60
(g81
g62
NtRp3503
(dp3504
g65
(dp3505
g92
g93
ssg74
g3494
sg67
(lp3506
S':'
asbag60
(g81
g62
NtRp3507
(dp3508
g65
(dp3509
sg74
g3494
sg67
(lp3510
g60
(g61
g62
NtRp3511
(dp3512
g65
(dp3513
g73
I3
ssg74
g3507
sg67
(lp3514
S''
asbasbasbag60
(g76
g62
NtRp3515
(dp3516
g65
(dp3517
sg74
g3360
sg67
(lp3518
g60
(g81
g62
NtRp3519
(dp3520
g65
(dp3521
g85
g86
ssg74
g3515
sg67
(lp3522
S'reset_password_key'
p3523
asbag60
(g81
g62
NtRp3524
(dp3525
g65
(dp3526
g92
g93
ssg74
g3515
sg67
(lp3527
S':'
asbag60
(g81
g62
NtRp3528
(dp3529
g65
(dp3530
sg74
g3515
sg67
(lp3531
g60
(g61
g62
NtRp3532
(dp3533
g65
(dp3534
g73
I3
ssg74
g3528
sg67
(lp3535
S''
asbasbasbasbasbasbasbag60
(g76
g62
NtRp3536
(dp3537
g65
(dp3538
sg74
g3269
sg67
(lp3539
g60
(g81
g62
NtRp3540
(dp3541
g65
(dp3542
g85
g86
ssg74
g3536
sg67
(lp3543
S'user_groups'
p3544
asbag60
(g81
g62
NtRp3545
(dp3546
g65
(dp3547
g92
g93
ssg74
g3536
sg67
(lp3548
S':'
asbag60
(g81
g62
NtRp3549
(dp3550
g65
(dp3551
sg74
g3536
sg67
(lp3552
g60
(g61
g62
NtRp3553
(dp3554
g65
(dp3555
g73
I4
ssg74
g3549
sg67
(lp3556
g60
(g69
g62
NtRp3557
(dp3558
g65
(dp3559
g73
I3
ssg74
Nsg67
(lp3560
g60
(g76
g62
NtRp3561
(dp3562
g65
(dp3563
sg74
g3557
sg67
(lp3564
g60
(g81
g62
NtRp3565
(dp3566
g65
(dp3567
g85
g86
ssg74
g3561
sg67
(lp3568
S'3'
asbag60
(g81
g62
NtRp3569
(dp3570
g65
(dp3571
g92
g93
ssg74
g3561
sg67
(lp3572
S':'
asbag60
(g81
g62
NtRp3573
(dp3574
g65
(dp3575
sg74
g3561
sg67
(lp3576
g60
(g61
g62
NtRp3577
(dp3578
g65
(dp3579
g73
I3
ssg74
g3573
sg67
(lp3580
S'user_4'
p3581
asbasbasbasbasbasbasbasbasbasbasbag60
(g76
g62
NtRp3582
(dp3583
g65
(dp3584
sg74
g3244
sg67
(lp3585
g60
(g81
g62
NtRp3586
(dp3587
g65
(dp3588
g85
g86
ssg74
g3582
sg67
(lp3589
S'flash'
p3590
asbag60
(g81
g62
NtRp3591
(dp3592
g65
(dp3593
g92
g93
ssg74
g3582
sg67
(lp3594
S':'
asbag60
(g81
g62
NtRp3595
(dp3596
g65
(dp3597
sg74
g3582
sg67
(lp3598
g60
(g61
g62
NtRp3599
(dp3600
g65
(dp3601
g73
I5
ssg74
g3595
sg67
(lp3602
S'None'
p3603
asbasbasbasbasbsS'etype'
p3604
S"<type 'exceptions.IndentationError'>"
p3605
sS'date'
p3606
S'Wed Oct 17 09:41:28 2012'
p3607
sS'response'
p3608
g60
(g61
g62
NtRp3609
(dp3610
g65
(dp3611
sg67
(lp3612
g60
(g69
g62
NtRp3613
(dp3614
g65
(dp3615
g73
I5
ssg74
Nsg67
(lp3616
g60
(g76
g62
NtRp3617
(dp3618
g65
(dp3619
sg74
g3613
sg67
(lp3620
g60
(g81
g62
NtRp3621
(dp3622
g65
(dp3623
g85
g86
ssg74
g3617
sg67
(lp3624
g158
asbag60
(g81
g62
NtRp3625
(dp3626
g65
(dp3627
g92
g93
ssg74
g3617
sg67
(lp3628
S':'
asbag60
(g81
g62
NtRp3629
(dp3630
g65
(dp3631
sg74
g3617
sg67
(lp3632
g60
(g61
g62
NtRp3633
(dp3634
g65
(dp3635
g73
I5
ssg74
g3629
sg67
(lp3636
S'<cStringIO.StringO object at 0xa63edc0>'
p3637
asbasbasbag60
(g76
g62
NtRp3638
(dp3639
g65
(dp3640
sg74
g3613
sg67
(lp3641
g60
(g81
g62
NtRp3642
(dp3643
g65
(dp3644
g85
g86
ssg74
g3638
sg67
(lp3645
g246
asbag60
(g81
g62
NtRp3646
(dp3647
g65
(dp3648
g92
g93
ssg74
g3638
sg67
(lp3649
S':'
asbag60
(g81
g62
NtRp3650
(dp3651
g65
(dp3652
sg74
g3638
sg67
(lp3653
g60
(g61
g62
NtRp3654
(dp3655
g65
(dp3656
g73
I5
ssg74
g3650
sg67
(lp3657
g60
(g69
g62
NtRp3658
(dp3659
g65
(dp3660
g73
I4
ssg74
Nsg67
(lp3661
g60
(g76
g62
NtRp3662
(dp3663
g65
(dp3664
sg74
g3658
sg67
(lp3665
g60
(g81
g62
NtRp3666
(dp3667
g65
(dp3668
g85
g86
ssg74
g3662
sg67
(lp3669
S'session_id_mifacebook'
p3670
asbag60
(g81
g62
NtRp3671
(dp3672
g65
(dp3673
g92
g93
ssg74
g3662
sg67
(lp3674
S':'
asbag60
(g81
g62
NtRp3675
(dp3676
g65
(dp3677
sg74
g3662
sg67
(lp3678
g60
(g61
g62
NtRp3679
(dp3680
g65
(dp3681
g73
I4
ssg74
g3675
sg67
(lp3682
g457
ag60
(g69
g62
NtRp3683
(dp3684
g65
(dp3685
g73
I3
ssg74
Nsg67
(lp3686
g60
(g76
g62
NtRp3687
(dp3688
g65
(dp3689
sg74
g3683
sg67
(lp3690
g60
(g81
g62
NtRp3691
(dp3692
g65
(dp3693
g85
g86
ssg74
g3687
sg67
(lp3694
g297
asbag60
(g81
g62
NtRp3695
(dp3696
g65
(dp3697
g92
g93
ssg74
g3687
sg67
(lp3698
S':'
asbag60
(g81
g62
NtRp3699
(dp3700
g65
(dp3701
sg74
g3687
sg67
(lp3702
g60
(g61
g62
NtRp3703
(dp3704
g65
(dp3705
g73
I3
ssg74
g3699
sg67
(lp3706
S''
asbasbasbag60
(g76
g62
NtRp3707
(dp3708
g65
(dp3709
sg74
g3683
sg67
(lp3710
g60
(g81
g62
NtRp3711
(dp3712
g65
(dp3713
g85
g86
ssg74
g3707
sg67
(lp3714
g318
asbag60
(g81
g62
NtRp3715
(dp3716
g65
(dp3717
g92
g93
ssg74
g3707
sg67
(lp3718
S':'
asbag60
(g81
g62
NtRp3719
(dp3720
g65
(dp3721
sg74
g3707
sg67
(lp3722
g60
(g61
g62
NtRp3723
(dp3724
g65
(dp3725
g73
I3
ssg74
g3719
sg67
(lp3726
S''
asbasbasbag60
(g76
g62
NtRp3727
(dp3728
g65
(dp3729
sg74
g3683
sg67
(lp3730
g60
(g81
g62
NtRp3731
(dp3732
g65
(dp3733
g85
g86
ssg74
g3727
sg67
(lp3734
g339
asbag60
(g81
g62
NtRp3735
(dp3736
g65
(dp3737
g92
g93
ssg74
g3727
sg67
(lp3738
S':'
asbag60
(g81
g62
NtRp3739
(dp3740
g65
(dp3741
sg74
g3727
sg67
(lp3742
g60
(g61
g62
NtRp3743
(dp3744
g65
(dp3745
g73
I3
ssg74
g3739
sg67
(lp3746
S''
asbasbasbag60
(g76
g62
NtRp3747
(dp3748
g65
(dp3749
sg74
g3683
sg67
(lp3750
g60
(g81
g62
NtRp3751
(dp3752
g65
(dp3753
g85
g86
ssg74
g3747
sg67
(lp3754
g360
asbag60
(g81
g62
NtRp3755
(dp3756
g65
(dp3757
g92
g93
ssg74
g3747
sg67
(lp3758
S':'
asbag60
(g81
g62
NtRp3759
(dp3760
g65
(dp3761
sg74
g3747
sg67
(lp3762
g60
(g61
g62
NtRp3763
(dp3764
g65
(dp3765
g73
I3
ssg74
g3759
sg67
(lp3766
S''
asbasbasbag60
(g76
g62
NtRp3767
(dp3768
g65
(dp3769
sg74
g3683
sg67
(lp3770
g60
(g81
g62
NtRp3771
(dp3772
g65
(dp3773
g85
g86
ssg74
g3767
sg67
(lp3774
g381
asbag60
(g81
g62
NtRp3775
(dp3776
g65
(dp3777
g92
g93
ssg74
g3767
sg67
(lp3778
S':'
asbag60
(g81
g62
NtRp3779
(dp3780
g65
(dp3781
sg74
g3767
sg67
(lp3782
g60
(g61
g62
NtRp3783
(dp3784
g65
(dp3785
g73
I3
ssg74
g3779
sg67
(lp3786
S'/'
asbasbasbag60
(g76
g62
NtRp3787
(dp3788
g65
(dp3789
sg74
g3683
sg67
(lp3790
g60
(g81
g62
NtRp3791
(dp3792
g65
(dp3793
g85
g86
ssg74
g3787
sg67
(lp3794
g402
asbag60
(g81
g62
NtRp3795
(dp3796
g65
(dp3797
g92
g93
ssg74
g3787
sg67
(lp3798
S':'
asbag60
(g81
g62
NtRp3799
(dp3800
g65
(dp3801
sg74
g3787
sg67
(lp3802
g60
(g61
g62
NtRp3803
(dp3804
g65
(dp3805
g73
I3
ssg74
g3799
sg67
(lp3806
S''
asbasbasbag60
(g76
g62
NtRp3807
(dp3808
g65
(dp3809
sg74
g3683
sg67
(lp3810
g60
(g81
g62
NtRp3811
(dp3812
g65
(dp3813
g85
g86
ssg74
g3807
sg67
(lp3814
g423
asbag60
(g81
g62
NtRp3815
(dp3816
g65
(dp3817
g92
g93
ssg74
g3807
sg67
(lp3818
S':'
asbag60
(g81
g62
NtRp3819
(dp3820
g65
(dp3821
sg74
g3807
sg67
(lp3822
g60
(g61
g62
NtRp3823
(dp3824
g65
(dp3825
g73
I3
ssg74
g3819
sg67
(lp3826
S''
asbasbasbasbasbasbasbasbasbasbasbag60
(g76
g62
NtRp3827
(dp3828
g65
(dp3829
sg74
g3613
sg67
(lp3830
g60
(g81
g62
NtRp3831
(dp3832
g65
(dp3833
g85
g86
ssg74
g3827
sg67
(lp3834
S'delimiters'
p3835
asbag60
(g81
g62
NtRp3836
(dp3837
g65
(dp3838
g92
g93
ssg74
g3827
sg67
(lp3839
S':'
asbag60
(g81
g62
NtRp3840
(dp3841
g65
(dp3842
sg74
g3827
sg67
(lp3843
g60
(g61
g62
NtRp3844
(dp3845
g65
(dp3846
g73
I5
ssg74
g3840
sg67
(lp3847
g60
(g69
g62
NtRp3848
(dp3849
g65
(dp3850
g73
I4
ssg74
Nsg67
(lp3851
g60
(g76
g62
NtRp3852
(dp3853
g65
(dp3854
sg74
g3848
sg67
(lp3855
g60
(g81
g62
NtRp3856
(dp3857
g65
(dp3858
sg74
g3852
sg67
(lp3859
g60
(g61
g62
NtRp3860
(dp3861
g65
(dp3862
g73
I4
ssg74
g3856
sg67
(lp3863
S'{{'
p3864
asbasbasbag60
(g76
g62
NtRp3865
(dp3866
g65
(dp3867
sg74
g3848
sg67
(lp3868
g60
(g81
g62
NtRp3869
(dp3870
g65
(dp3871
sg74
g3865
sg67
(lp3872
g60
(g61
g62
NtRp3873
(dp3874
g65
(dp3875
g73
I4
ssg74
g3869
sg67
(lp3876
S'}}'
p3877
asbasbasbasbasbasbasbag60
(g76
g62
NtRp3878
(dp3879
g65
(dp3880
sg74
g3613
sg67
(lp3881
g60
(g81
g62
NtRp3882
(dp3883
g65
(dp3884
g85
g86
ssg74
g3878
sg67
(lp3885
S'files'
p3886
asbag60
(g81
g62
NtRp3887
(dp3888
g65
(dp3889
g92
g93
ssg74
g3878
sg67
(lp3890
S':'
asbag60
(g81
g62
NtRp3891
(dp3892
g65
(dp3893
sg74
g3878
sg67
(lp3894
g60
(g61
g62
NtRp3895
(dp3896
g65
(dp3897
g73
I5
ssg74
g3891
sg67
(lp3898
g60
(g69
g62
NtRp3899
(dp3900
g65
(dp3901
g73
I4
ssg74
Nsg67
(lp3902
sbasbasbasbag60
(g76
g62
NtRp3903
(dp3904
g65
(dp3905
sg74
g3613
sg67
(lp3906
g60
(g81
g62
NtRp3907
(dp3908
g65
(dp3909
g85
g86
ssg74
g3903
sg67
(lp3910
S'flash'
p3911
asbag60
(g81
g62
NtRp3912
(dp3913
g65
(dp3914
g92
g93
ssg74
g3903
sg67
(lp3915
S':'
asbag60
(g81
g62
NtRp3916
(dp3917
g65
(dp3918
sg74
g3903
sg67
(lp3919
g60
(g61
g62
NtRp3920
(dp3921
g65
(dp3922
g73
I5
ssg74
g3916
sg67
(lp3923
S''
asbasbasbag60
(g76
g62
NtRp3924
(dp3925
g65
(dp3926
sg74
g3613
sg67
(lp3927
g60
(g81
g62
NtRp3928
(dp3929
g65
(dp3930
g85
g86
ssg74
g3924
sg67
(lp3931
S'generic_patterns'
p3932
asbag60
(g81
g62
NtRp3933
(dp3934
g65
(dp3935
g92
g93
ssg74
g3924
sg67
(lp3936
S':'
asbag60
(g81
g62
NtRp3937
(dp3938
g65
(dp3939
sg74
g3924
sg67
(lp3940
g60
(g61
g62
NtRp3941
(dp3942
g65
(dp3943
g73
I5
ssg74
g3937
sg67
(lp3944
g60
(g69
g62
NtRp3945
(dp3946
g65
(dp3947
g73
I4
ssg74
Nsg67
(lp3948
g60
(g76
g62
NtRp3949
(dp3950
g65
(dp3951
sg74
g3945
sg67
(lp3952
g60
(g81
g62
NtRp3953
(dp3954
g65
(dp3955
sg74
g3949
sg67
(lp3956
g60
(g61
g62
NtRp3957
(dp3958
g65
(dp3959
g73
I4
ssg74
g3953
sg67
(lp3960
S'*'
asbasbasbasbasbasbasbag60
(g76
g62
NtRp3961
(dp3962
g65
(dp3963
sg74
g3613
sg67
(lp3964
g60
(g81
g62
NtRp3965
(dp3966
g65
(dp3967
g85
g86
ssg74
g3961
sg67
(lp3968
S'google_analytics_id'
p3969
asbag60
(g81
g62
NtRp3970
(dp3971
g65
(dp3972
g92
g93
ssg74
g3961
sg67
(lp3973
S':'
asbag60
(g81
g62
NtRp3974
(dp3975
g65
(dp3976
sg74
g3961
sg67
(lp3977
g60
(g61
g62
NtRp3978
(dp3979
g65
(dp3980
g73
I5
ssg74
g3974
sg67
(lp3981
S'None'
p3982
asbasbasbag60
(g76
g62
NtRp3983
(dp3984
g65
(dp3985
sg74
g3613
sg67
(lp3986
g60
(g81
g62
NtRp3987
(dp3988
g65
(dp3989
g85
g86
ssg74
g3983
sg67
(lp3990
S'headers'
p3991
asbag60
(g81
g62
NtRp3992
(dp3993
g65
(dp3994
g92
g93
ssg74
g3983
sg67
(lp3995
S':'
asbag60
(g81
g62
NtRp3996
(dp3997
g65
(dp3998
sg74
g3983
sg67
(lp3999
g60
(g61
g62
NtRp4000
(dp4001
g65
(dp4002
g73
I5
ssg74
g3996
sg67
(lp4003
g60
(g69
g62
NtRp4004
(dp4005
g65
(dp4006
g73
I4
ssg74
Nsg67
(lp4007
g60
(g76
g62
NtRp4008
(dp4009
g65
(dp4010
sg74
g4004
sg67
(lp4011
g60
(g81
g62
NtRp4012
(dp4013
g65
(dp4014
g85
g86
ssg74
g4008
sg67
(lp4015
S'X-Powered-By'
p4016
asbag60
(g81
g62
NtRp4017
(dp4018
g65
(dp4019
g92
g93
ssg74
g4008
sg67
(lp4020
S':'
asbag60
(g81
g62
NtRp4021
(dp4022
g65
(dp4023
sg74
g4008
sg67
(lp4024
g60
(g61
g62
NtRp4025
(dp4026
g65
(dp4027
g73
I4
ssg74
g4021
sg67
(lp4028
S'web2py'
p4029
asbasbasbasbasbasbasbag60
(g76
g62
NtRp4030
(dp4031
g65
(dp4032
sg74
g3613
sg67
(lp4033
g60
(g81
g62
NtRp4034
(dp4035
g65
(dp4036
g85
g86
ssg74
g4030
sg67
(lp4037
S'menu'
p4038
asbag60
(g81
g62
NtRp4039
(dp4040
g65
(dp4041
g92
g93
ssg74
g4030
sg67
(lp4042
S':'
asbag60
(g81
g62
NtRp4043
(dp4044
g65
(dp4045
sg74
g4030
sg67
(lp4046
g60
(g61
g62
NtRp4047
(dp4048
g65
(dp4049
g73
I5
ssg74
g4043
sg67
(lp4050
g60
(g69
g62
NtRp4051
(dp4052
g65
(dp4053
g73
I4
ssg74
Nsg67
(lp4054
g60
(g76
g62
NtRp4055
(dp4056
g65
(dp4057
sg74
g4051
sg67
(lp4058
g60
(g81
g62
NtRp4059
(dp4060
g65
(dp4061
sg74
g4055
sg67
(lp4062
g60
(g61
g62
NtRp4063
(dp4064
g65
(dp4065
g73
I4
ssg74
g4059
sg67
(lp4066
g60
(g69
g62
NtRp4067
(dp4068
g65
(dp4069
g73
I3
ssg74
Nsg67
(lp4070
g60
(g76
g62
NtRp4071
(dp4072
g65
(dp4073
sg74
g4067
sg67
(lp4074
g60
(g81
g62
NtRp4075
(dp4076
g65
(dp4077
sg74
g4071
sg67
(lp4078
g60
(g61
g62
NtRp4079
(dp4080
g65
(dp4081
g73
I3
ssg74
g4075
sg67
(lp4082
cgluon.languages
lazyT_unpickle
p4083
(S't\x04\x00\x00\x00Home'
tRp4084
asbasbasbag60
(g76
g62
NtRp4085
(dp4086
g65
(dp4087
sg74
g4067
sg67
(lp4088
g60
(g81
g62
NtRp4089
(dp4090
g65
(dp4091
sg74
g4085
sg67
(lp4092
g60
(g61
g62
NtRp4093
(dp4094
g65
(dp4095
g73
I3
ssg74
g4089
sg67
(lp4096
g103
asbasbasbag60
(g76
g62
NtRp4097
(dp4098
g65
(dp4099
sg74
g4067
sg67
(lp4100
g60
(g81
g62
NtRp4101
(dp4102
g65
(dp4103
sg74
g4097
sg67
(lp4104
g60
(g61
g62
NtRp4105
(dp4106
g65
(dp4107
g73
I3
ssg74
g4101
sg67
(lp4108
S'/miFacebook/default/home'
p4109
asbasbasbasbasbasbasbag60
(g76
g62
NtRp4110
(dp4111
g65
(dp4112
sg74
g4051
sg67
(lp4113
g60
(g81
g62
NtRp4114
(dp4115
g65
(dp4116
sg74
g4110
sg67
(lp4117
g60
(g61
g62
NtRp4118
(dp4119
g65
(dp4120
g73
I4
ssg74
g4114
sg67
(lp4121
g60
(g69
g62
NtRp4122
(dp4123
g65
(dp4124
g73
I3
ssg74
Nsg67
(lp4125
g60
(g76
g62
NtRp4126
(dp4127
g65
(dp4128
sg74
g4122
sg67
(lp4129
g60
(g81
g62
NtRp4130
(dp4131
g65
(dp4132
sg74
g4126
sg67
(lp4133
g60
(g61
g62
NtRp4134
(dp4135
g65
(dp4136
g73
I3
ssg74
g4130
sg67
(lp4137
g4083
(S't\x04\x00\x00\x00Wall'
tRp4138
asbasbasbag60
(g76
g62
NtRp4139
(dp4140
g65
(dp4141
sg74
g4122
sg67
(lp4142
g60
(g81
g62
NtRp4143
(dp4144
g65
(dp4145
sg74
g4139
sg67
(lp4146
g60
(g61
g62
NtRp4147
(dp4148
g65
(dp4149
g73
I3
ssg74
g4143
sg67
(lp4150
g103
asbasbasbag60
(g76
g62
NtRp4151
(dp4152
g65
(dp4153
sg74
g4122
sg67
(lp4154
g60
(g81
g62
NtRp4155
(dp4156
g65
(dp4157
sg74
g4151
sg67
(lp4158
g60
(g61
g62
NtRp4159
(dp4160
g65
(dp4161
g73
I3
ssg74
g4155
sg67
(lp4162
S'/miFacebook/default/wall'
p4163
asbasbasbasbasbasbasbag60
(g76
g62
NtRp4164
(dp4165
g65
(dp4166
sg74
g4051
sg67
(lp4167
g60
(g81
g62
NtRp4168
(dp4169
g65
(dp4170
sg74
g4164
sg67
(lp4171
g60
(g61
g62
NtRp4172
(dp4173
g65
(dp4174
g73
I4
ssg74
g4168
sg67
(lp4175
g60
(g69
g62
NtRp4176
(dp4177
g65
(dp4178
g73
I3
ssg74
Nsg67
(lp4179
g60
(g76
g62
NtRp4180
(dp4181
g65
(dp4182
sg74
g4176
sg67
(lp4183
g60
(g81
g62
NtRp4184
(dp4185
g65
(dp4186
sg74
g4180
sg67
(lp4187
g60
(g61
g62
NtRp4188
(dp4189
g65
(dp4190
g73
I3
ssg74
g4184
sg67
(lp4191
g4083
(S't\x07\x00\x00\x00Friends'
tRp4192
asbasbasbag60
(g76
g62
NtRp4193
(dp4194
g65
(dp4195
sg74
g4176
sg67
(lp4196
g60
(g81
g62
NtRp4197
(dp4198
g65
(dp4199
sg74
g4193
sg67
(lp4200
g60
(g61
g62
NtRp4201
(dp4202
g65
(dp4203
g73
I3
ssg74
g4197
sg67
(lp4204
g103
asbasbasbag60
(g76
g62
NtRp4205
(dp4206
g65
(dp4207
sg74
g4176
sg67
(lp4208
g60
(g81
g62
NtRp4209
(dp4210
g65
(dp4211
sg74
g4205
sg67
(lp4212
g60
(g61
g62
NtRp4213
(dp4214
g65
(dp4215
g73
I3
ssg74
g4209
sg67
(lp4216
S'/miFacebook/default/friends'
p4217
asbasbasbasbasbasbasbag60
(g76
g62
NtRp4218
(dp4219
g65
(dp4220
sg74
g4051
sg67
(lp4221
g60
(g81
g62
NtRp4222
(dp4223
g65
(dp4224
sg74
g4218
sg67
(lp4225
g60
(g61
g62
NtRp4226
(dp4227
g65
(dp4228
g73
I4
ssg74
g4222
sg67
(lp4229
g60
(g69
g62
NtRp4230
(dp4231
g65
(dp4232
g73
I3
ssg74
Nsg67
(lp4233
g60
(g76
g62
NtRp4234
(dp4235
g65
(dp4236
sg74
g4230
sg67
(lp4237
g60
(g81
g62
NtRp4238
(dp4239
g65
(dp4240
sg74
g4234
sg67
(lp4241
g60
(g61
g62
NtRp4242
(dp4243
g65
(dp4244
g73
I3
ssg74
g4238
sg67
(lp4245
g4083
(S't\x06\x00\x00\x00Search'
tRp4246
asbasbasbag60
(g76
g62
NtRp4247
(dp4248
g65
(dp4249
sg74
g4230
sg67
(lp4250
g60
(g81
g62
NtRp4251
(dp4252
g65
(dp4253
sg74
g4247
sg67
(lp4254
g60
(g61
g62
NtRp4255
(dp4256
g65
(dp4257
g73
I3
ssg74
g4251
sg67
(lp4258
g103
asbasbasbag60
(g76
g62
NtRp4259
(dp4260
g65
(dp4261
sg74
g4230
sg67
(lp4262
g60
(g81
g62
NtRp4263
(dp4264
g65
(dp4265
sg74
g4259
sg67
(lp4266
g60
(g61
g62
NtRp4267
(dp4268
g65
(dp4269
g73
I3
ssg74
g4263
sg67
(lp4270
S'/miFacebook/default/search'
p4271
asbasbasbasbasbasbasbasbasbasbasbag60
(g76
g62
NtRp4272
(dp4273
g65
(dp4274
sg74
g3613
sg67
(lp4275
g60
(g81
g62
NtRp4276
(dp4277
g65
(dp4278
g85
g86
ssg74
g4272
sg67
(lp4279
S'meta'
p4280
asbag60
(g81
g62
NtRp4281
(dp4282
g65
(dp4283
g92
g93
ssg74
g4272
sg67
(lp4284
S':'
asbag60
(g81
g62
NtRp4285
(dp4286
g65
(dp4287
sg74
g4272
sg67
(lp4288
g60
(g61
g62
NtRp4289
(dp4290
g65
(dp4291
g73
I5
ssg74
g4285
sg67
(lp4292
g60
(g69
g62
NtRp4293
(dp4294
g65
(dp4295
g73
I4
ssg74
Nsg67
(lp4296
g60
(g76
g62
NtRp4297
(dp4298
g65
(dp4299
sg74
g4293
sg67
(lp4300
g60
(g81
g62
NtRp4301
(dp4302
g65
(dp4303
g85
g86
ssg74
g4297
sg67
(lp4304
S'author'
p4305
asbag60
(g81
g62
NtRp4306
(dp4307
g65
(dp4308
g92
g93
ssg74
g4297
sg67
(lp4309
S':'
asbag60
(g81
g62
NtRp4310
(dp4311
g65
(dp4312
sg74
g4297
sg67
(lp4313
g60
(g61
g62
NtRp4314
(dp4315
g65
(dp4316
g73
I4
ssg74
g4310
sg67
(lp4317
S'Your Name <you@example.com>'
p4318
asbasbasbag60
(g76
g62
NtRp4319
(dp4320
g65
(dp4321
sg74
g4293
sg67
(lp4322
g60
(g81
g62
NtRp4323
(dp4324
g65
(dp4325
g85
g86
ssg74
g4319
sg67
(lp4326
S'description'
p4327
asbag60
(g81
g62
NtRp4328
(dp4329
g65
(dp4330
g92
g93
ssg74
g4319
sg67
(lp4331
S':'
asbag60
(g81
g62
NtRp4332
(dp4333
g65
(dp4334
sg74
g4319
sg67
(lp4335
g60
(g61
g62
NtRp4336
(dp4337
g65
(dp4338
g73
I4
ssg74
g4332
sg67
(lp4339
S'a cool new app'
p4340
asbasbasbag60
(g76
g62
NtRp4341
(dp4342
g65
(dp4343
sg74
g4293
sg67
(lp4344
g60
(g81
g62
NtRp4345
(dp4346
g65
(dp4347
g85
g86
ssg74
g4341
sg67
(lp4348
S'generator'
p4349
asbag60
(g81
g62
NtRp4350
(dp4351
g65
(dp4352
g92
g93
ssg74
g4341
sg67
(lp4353
S':'
asbag60
(g81
g62
NtRp4354
(dp4355
g65
(dp4356
sg74
g4341
sg67
(lp4357
g60
(g61
g62
NtRp4358
(dp4359
g65
(dp4360
g73
I4
ssg74
g4354
sg67
(lp4361
S'Web2py Web Framework'
p4362
asbasbasbag60
(g76
g62
NtRp4363
(dp4364
g65
(dp4365
sg74
g4293
sg67
(lp4366
g60
(g81
g62
NtRp4367
(dp4368
g65
(dp4369
g85
g86
ssg74
g4363
sg67
(lp4370
S'keywords'
p4371
asbag60
(g81
g62
NtRp4372
(dp4373
g65
(dp4374
g92
g93
ssg74
g4363
sg67
(lp4375
S':'
asbag60
(g81
g62
NtRp4376
(dp4377
g65
(dp4378
sg74
g4363
sg67
(lp4379
g60
(g61
g62
NtRp4380
(dp4381
g65
(dp4382
g73
I4
ssg74
g4376
sg67
(lp4383
S'web2py, python, framework'
p4384
asbasbasbasbasbasbasbag60
(g76
g62
NtRp4385
(dp4386
g65
(dp4387
sg74
g3613
sg67
(lp4388
g60
(g81
g62
NtRp4389
(dp4390
g65
(dp4391
g85
g86
ssg74
g4385
sg67
(lp4392
S'models_to_run'
p4393
asbag60
(g81
g62
NtRp4394
(dp4395
g65
(dp4396
g92
g93
ssg74
g4385
sg67
(lp4397
S':'
asbag60
(g81
g62
NtRp4398
(dp4399
g65
(dp4400
sg74
g4385
sg67
(lp4401
g60
(g61
g62
NtRp4402
(dp4403
g65
(dp4404
g73
I5
ssg74
g4398
sg67
(lp4405
g60
(g69
g62
NtRp4406
(dp4407
g65
(dp4408
g73
I4
ssg74
Nsg67
(lp4409
g60
(g76
g62
NtRp4410
(dp4411
g65
(dp4412
sg74
g4406
sg67
(lp4413
g60
(g81
g62
NtRp4414
(dp4415
g65
(dp4416
sg74
g4410
sg67
(lp4417
g60
(g61
g62
NtRp4418
(dp4419
g65
(dp4420
g73
I4
ssg74
g4414
sg67
(lp4421
S'^\\w+\\.py$'
p4422
asbasbasbag60
(g76
g62
NtRp4423
(dp4424
g65
(dp4425
sg74
g4406
sg67
(lp4426
g60
(g81
g62
NtRp4427
(dp4428
g65
(dp4429
sg74
g4423
sg67
(lp4430
g60
(g61
g62
NtRp4431
(dp4432
g65
(dp4433
g73
I4
ssg74
g4427
sg67
(lp4434
S'^default/\\w+\\.py$'
p4435
asbasbasbag60
(g76
g62
NtRp4436
(dp4437
g65
(dp4438
sg74
g4406
sg67
(lp4439
g60
(g81
g62
NtRp4440
(dp4441
g65
(dp4442
sg74
g4436
sg67
(lp4443
g60
(g61
g62
NtRp4444
(dp4445
g65
(dp4446
g73
I4
ssg74
g4440
sg67
(lp4447
S'^default/friends/\\w+\\.py$'
p4448
asbasbasbasbasbasbasbag60
(g76
g62
NtRp4449
(dp4450
g65
(dp4451
sg74
g3613
sg67
(lp4452
g60
(g81
g62
NtRp4453
(dp4454
g65
(dp4455
g85
g86
ssg74
g4449
sg67
(lp4456
S'postprocessing'
p4457
asbag60
(g81
g62
NtRp4458
(dp4459
g65
(dp4460
g92
g93
ssg74
g4449
sg67
(lp4461
S':'
asbag60
(g81
g62
NtRp4462
(dp4463
g65
(dp4464
sg74
g4449
sg67
(lp4465
g60
(g61
g62
NtRp4466
(dp4467
g65
(dp4468
g73
I5
ssg74
g4462
sg67
(lp4469
g60
(g69
g62
NtRp4470
(dp4471
g65
(dp4472
g73
I4
ssg74
Nsg67
(lp4473
sbasbasbasbag60
(g76
g62
NtRp4474
(dp4475
g65
(dp4476
sg74
g3613
sg67
(lp4477
g60
(g81
g62
NtRp4478
(dp4479
g65
(dp4480
g85
g86
ssg74
g4474
sg67
(lp4481
S'session_file'
p4482
asbag60
(g81
g62
NtRp4483
(dp4484
g65
(dp4485
g92
g93
ssg74
g4474
sg67
(lp4486
S':'
asbag60
(g81
g62
NtRp4487
(dp4488
g65
(dp4489
sg74
g4474
sg67
(lp4490
g60
(g61
g62
NtRp4491
(dp4492
g65
(dp4493
g73
I5
ssg74
g4487
sg67
(lp4494
S"<open file '/Applications/web2py.app/Contents/Resources/applications/miFacebook/sessions/127.0.0.1-05de177b-62db-48b0-aa89-2aa07a9430e3', mode 'rb+' at 0x907de30>"
p4495
asbasbasbag60
(g76
g62
NtRp4496
(dp4497
g65
(dp4498
sg74
g3613
sg67
(lp4499
g60
(g81
g62
NtRp4500
(dp4501
g65
(dp4502
g85
g86
ssg74
g4496
sg67
(lp4503
S'session_filename'
p4504
asbag60
(g81
g62
NtRp4505
(dp4506
g65
(dp4507
g92
g93
ssg74
g4496
sg67
(lp4508
S':'
asbag60
(g81
g62
NtRp4509
(dp4510
g65
(dp4511
sg74
g4496
sg67
(lp4512
g60
(g61
g62
NtRp4513
(dp4514
g65
(dp4515
g73
I5
ssg74
g4509
sg67
(lp4516
S'/Applications/web2py.app/Contents/Resources/applications/miFacebook/sessions/127.0.0.1-05de177b-62db-48b0-aa89-2aa07a9430e3'
p4517
asbasbasbag60
(g76
g62
NtRp4518
(dp4519
g65
(dp4520
sg74
g3613
sg67
(lp4521
g60
(g81
g62
NtRp4522
(dp4523
g65
(dp4524
g85
g86
ssg74
g4518
sg67
(lp4525
S'session_id'
p4526
asbag60
(g81
g62
NtRp4527
(dp4528
g65
(dp4529
g92
g93
ssg74
g4518
sg67
(lp4530
S':'
asbag60
(g81
g62
NtRp4531
(dp4532
g65
(dp4533
sg74
g4518
sg67
(lp4534
g60
(g61
g62
NtRp4535
(dp4536
g65
(dp4537
g73
I5
ssg74
g4531
sg67
(lp4538
g457
asbasbasbag60
(g76
g62
NtRp4539
(dp4540
g65
(dp4541
sg74
g3613
sg67
(lp4542
g60
(g81
g62
NtRp4543
(dp4544
g65
(dp4545
g85
g86
ssg74
g4539
sg67
(lp4546
S'session_id_name'
p4547
asbag60
(g81
g62
NtRp4548
(dp4549
g65
(dp4550
g92
g93
ssg74
g4539
sg67
(lp4551
S':'
asbag60
(g81
g62
NtRp4552
(dp4553
g65
(dp4554
sg74
g4539
sg67
(lp4555
g60
(g61
g62
NtRp4556
(dp4557
g65
(dp4558
g73
I5
ssg74
g4552
sg67
(lp4559
g3670
asbasbasbag60
(g76
g62
NtRp4560
(dp4561
g65
(dp4562
sg74
g3613
sg67
(lp4563
g60
(g81
g62
NtRp4564
(dp4565
g65
(dp4566
g85
g86
ssg74
g4560
sg67
(lp4567
S'session_locked'
p4568
asbag60
(g81
g62
NtRp4569
(dp4570
g65
(dp4571
g92
g93
ssg74
g4560
sg67
(lp4572
S':'
asbag60
(g81
g62
NtRp4573
(dp4574
g65
(dp4575
sg74
g4560
sg67
(lp4576
g60
(g61
g62
NtRp4577
(dp4578
g65
(dp4579
g73
I5
ssg74
g4573
sg67
(lp4580
g1831
asbasbasbag60
(g76
g62
NtRp4581
(dp4582
g65
(dp4583
sg74
g3613
sg67
(lp4584
g60
(g81
g62
NtRp4585
(dp4586
g65
(dp4587
g85
g86
ssg74
g4581
sg67
(lp4588
S'session_new'
p4589
asbag60
(g81
g62
NtRp4590
(dp4591
g65
(dp4592
g92
g93
ssg74
g4581
sg67
(lp4593
S':'
asbag60
(g81
g62
NtRp4594
(dp4595
g65
(dp4596
sg74
g4581
sg67
(lp4597
g60
(g61
g62
NtRp4598
(dp4599
g65
(dp4600
g73
I5
ssg74
g4594
sg67
(lp4601
g103
asbasbasbag60
(g76
g62
NtRp4602
(dp4603
g65
(dp4604
sg74
g3613
sg67
(lp4605
g60
(g81
g62
NtRp4606
(dp4607
g65
(dp4608
g85
g86
ssg74
g4602
sg67
(lp4609
S'status'
p4610
asbag60
(g81
g62
NtRp4611
(dp4612
g65
(dp4613
g92
g93
ssg74
g4602
sg67
(lp4614
S':'
asbag60
(g81
g62
NtRp4615
(dp4616
g65
(dp4617
sg74
g4602
sg67
(lp4618
g60
(g61
g62
NtRp4619
(dp4620
g65
(dp4621
g73
I5
ssg74
g4615
sg67
(lp4622
S'200'
p4623
asbasbasbag60
(g76
g62
NtRp4624
(dp4625
g65
(dp4626
sg74
g3613
sg67
(lp4627
g60
(g81
g62
NtRp4628
(dp4629
g65
(dp4630
g85
g86
ssg74
g4624
sg67
(lp4631
S'subtitle'
p4632
asbag60
(g81
g62
NtRp4633
(dp4634
g65
(dp4635
g92
g93
ssg74
g4624
sg67
(lp4636
S':'
asbag60
(g81
g62
NtRp4637
(dp4638
g65
(dp4639
sg74
g4624
sg67
(lp4640
g60
(g61
g62
NtRp4641
(dp4642
g65
(dp4643
g73
I5
ssg74
g4637
sg67
(lp4644
g4083
(S's\r\x00\x00\x00customize me!'
tRp4645
asbasbasbag60
(g76
g62
NtRp4646
(dp4647
g65
(dp4648
sg74
g3613
sg67
(lp4649
g60
(g81
g62
NtRp4650
(dp4651
g65
(dp4652
g85
g86
ssg74
g4646
sg67
(lp4653
S'title'
p4654
asbag60
(g81
g62
NtRp4655
(dp4656
g65
(dp4657
g92
g93
ssg74
g4646
sg67
(lp4658
S':'
asbag60
(g81
g62
NtRp4659
(dp4660
g65
(dp4661
sg74
g4646
sg67
(lp4662
g60
(g61
g62
NtRp4663
(dp4664
g65
(dp4665
g73
I5
ssg74
g4659
sg67
(lp4666
S'Mifacebook'
p4667
asbasbasbag60
(g76
g62
NtRp4668
(dp4669
g65
(dp4670
sg74
g3613
sg67
(lp4671
g60
(g81
g62
NtRp4672
(dp4673
g65
(dp4674
g85
g86
ssg74
g4668
sg67
(lp4675
S'view'
p4676
asbag60
(g81
g62
NtRp4677
(dp4678
g65
(dp4679
g92
g93
ssg74
g4668
sg67
(lp4680
S':'
asbag60
(g81
g62
NtRp4681
(dp4682
g65
(dp4683
sg74
g4668
sg67
(lp4684
g60
(g61
g62
NtRp4685
(dp4686
g65
(dp4687
g73
I5
ssg74
g4681
sg67
(lp4688
S'default/friends.html'
p4689
asbasbasbasbasbsS'locals'
p4690
(dp4691
g4
S"'/Applications/web2py.app/Contents/Resources/applications/miFacebook/controllers/default.py'"
p4692
sg6
S"'# -*- coding: utf-8 -*-\\n# this file is released ...lete()\\n\\nresponse._vars=response._caller(friends)\\n'"
p4693
sssS'traceback'
p4694
S'Traceback (most recent call last):\n  File "gluon/restricted.py", line 208, in restricted\n  File "gluon/restricted.py", line 193, in compile2\n  File "/Applications/web2py.app/Contents/Resources/applications/miFacebook/controllers/default.py", line 115\n    if request.env.request_method != \'POST\': raise HTTP(400)\n   ^\nIndentationError: unexpected indent\n'
p4695
s.