(dp1
S'output'
p2
S"<type 'exceptions.IndentationError'> unexpected indent (menu.py, line 37)"
p3
sS'layer'
p4
S'/Applications/web2py.app/Contents/Resources/applications/miFacebook/models/menu.py'
p5
sS'code'
p6
S"# -*- coding: utf-8 -*-\n# this file is released under public domain and you can use without limitations\n\n#########################################################################\n## Customize your APP title, subtitle and menus here\n#########################################################################\n\nresponse.title = ' '.join(word.capitalize() for word in request.application.split('_'))\nresponse.subtitle = T('customize me!')\n\n## read more at http://dev.w3.org/html5/markup/meta.name.html\nresponse.meta.author = 'Your Name <you@example.com>'\nresponse.meta.description = 'a cool new app'\nresponse.meta.keywords = 'web2py, python, framework'\nresponse.meta.generator = 'Web2py Web Framework'\n\n## your http://google.com/analytics id\nresponse.google_analytics_id = None\n\n#########################################################################\n## this is the main application menu add/remove items as required\n#########################################################################\n\nresponse.menu = [\n    (T('Home'), False, URL('default','index'), [])\n    ]\n\n#########################################################################\n## provide shortcuts for development. remove in production\n#########################################################################\n\ndef _():\n    # shortcuts\n    app = request.application\n    ctr = request.controller\n    # useful links to internal and external resources\n     response.menu = [\n         (T('Home'), False, URL('default', 'home')),\n         (T('Wall'), False, URL('default', 'wall')),\n         (T('Friends'), False, URL('default', 'friends')),\n         (T('Search'), False, URL('default', 'search')),\n        ]\n_()\n"
p7
sS'snapshot'
p8
(dp9
S'exception'
p10
(dp11
S'__getslice__'
p12
S"<method-wrapper '__getslice__' of exceptions.IndentationError object at 0x979cf30>"
p13
sS'text'
p14
S"'     response.menu = [\\n'"
p15
sS'__str__'
p16
S"<method-wrapper '__str__' of exceptions.IndentationError object at 0x979cf30>"
p17
sS'__reduce__'
p18
S'<built-in method __reduce__ of exceptions.IndentationError object at 0x979cf30>'
p19
sS'__dict__'
p20
S'{}'
p21
sS'__init__'
p22
S"<method-wrapper '__init__' of exceptions.IndentationError object at 0x979cf30>"
p23
sS'__setattr__'
p24
S"<method-wrapper '__setattr__' of exceptions.IndentationError object at 0x979cf30>"
p25
sS'__reduce_ex__'
p26
S'<built-in method __reduce_ex__ of exceptions.IndentationError object at 0x979cf30>'
p27
sS'__new__'
p28
S'<built-in method __new__ of type object at 0x20f9260>'
p29
sS'__class__'
p30
S"<type 'exceptions.IndentationError'>"
p31
sS'filename'
p32
S"'/Applications/web2py.app/Contents/Resources/applications/miFacebook/models/menu.py'"
p33
sS'lineno'
p34
S'37'
p35
sS'msg'
p36
S"'unexpected indent'"
p37
sS'__doc__'
p38
S"'Improper indentation.'"
p39
sS'__getitem__'
p40
S"<method-wrapper '__getitem__' of exceptions.IndentationError object at 0x979cf30>"
p41
sS'__setstate__'
p42
S'<built-in method __setstate__ of exceptions.IndentationError object at 0x979cf30>'
p43
sS'__getattribute__'
p44
S"<method-wrapper '__getattribute__' of exceptions.IndentationError object at 0x979cf30>"
p45
sS'print_file_and_line'
p46
S'None'
p47
sS'args'
p48
S"('unexpected indent', ('/Applications/web2py.app/Contents/Resources/applications/miFacebook/models/menu.py', 37, 5, '     response.menu = [\\n'))"
p49
sS'offset'
p50
S'5'
sS'__delattr__'
p51
S"<method-wrapper '__delattr__' of exceptions.IndentationError object at 0x979cf30>"
p52
sS'__repr__'
p53
S"<method-wrapper '__repr__' of exceptions.IndentationError object at 0x979cf30>"
p54
sS'__hash__'
p55
S"<method-wrapper '__hash__' of exceptions.IndentationError object at 0x979cf30>"
p56
ssS'evalue'
p57
S'unexpected indent (menu.py, line 37)'
p58
sS'request'
p59
ccopy_reg
_reconstructor
p60
(cgluon.html
BEAUTIFY
p61
c__builtin__
object
p62
NtRp63
(dp64
S'attributes'
p65
(dp66
sS'components'
p67
(lp68
g60
(cgluon.html
TABLE
p69
g62
NtRp70
(dp71
g65
(dp72
S'level'
p73
I5
ssS'parent'
p74
Nsg67
(lp75
g60
(cgluon.html
TR
p76
g62
NtRp77
(dp78
g65
(dp79
sg74
g70
sg67
(lp80
g60
(cgluon.html
TD
p81
g62
NtRp82
(dp83
g65
(dp84
S'_style'
p85
S'font-weight:bold;vertical-align:top'
p86
ssg74
g77
sg67
(lp87
S'ajax'
p88
asbag60
(g81
g62
NtRp89
(dp90
g65
(dp91
S'_valign'
p92
S'top'
p93
ssg74
g77
sg67
(lp94
S':'
asbag60
(g81
g62
NtRp95
(dp96
g65
(dp97
sg74
g77
sg67
(lp98
g60
(g61
g62
NtRp99
(dp100
g65
(dp101
g73
I5
ssg74
g95
sg67
(lp102
S'False'
p103
asbasbasbag60
(g76
g62
NtRp104
(dp105
g65
(dp106
sg74
g70
sg67
(lp107
g60
(g81
g62
NtRp108
(dp109
g65
(dp110
g85
g86
ssg74
g104
sg67
(lp111
S'application'
p112
asbag60
(g81
g62
NtRp113
(dp114
g65
(dp115
g92
g93
ssg74
g104
sg67
(lp116
S':'
asbag60
(g81
g62
NtRp117
(dp118
g65
(dp119
sg74
g104
sg67
(lp120
g60
(g61
g62
NtRp121
(dp122
g65
(dp123
g73
I5
ssg74
g117
sg67
(lp124
S'miFacebook'
p125
asbasbasbag60
(g76
g62
NtRp126
(dp127
g65
(dp128
sg74
g70
sg67
(lp129
g60
(g81
g62
NtRp130
(dp131
g65
(dp132
g85
g86
ssg74
g126
sg67
(lp133
g48
asbag60
(g81
g62
NtRp134
(dp135
g65
(dp136
g92
g93
ssg74
g126
sg67
(lp137
S':'
asbag60
(g81
g62
NtRp138
(dp139
g65
(dp140
sg74
g126
sg67
(lp141
g60
(g61
g62
NtRp142
(dp143
g65
(dp144
g73
I5
ssg74
g138
sg67
(lp145
g60
(g69
g62
NtRp146
(dp147
g65
(dp148
g73
I4
ssg74
Nsg67
(lp149
sbasbasbasbag60
(g76
g62
NtRp150
(dp151
g65
(dp152
sg74
g70
sg67
(lp153
g60
(g81
g62
NtRp154
(dp155
g65
(dp156
g85
g86
ssg74
g150
sg67
(lp157
S'body'
p158
asbag60
(g81
g62
NtRp159
(dp160
g65
(dp161
g92
g93
ssg74
g150
sg67
(lp162
S':'
asbag60
(g81
g62
NtRp163
(dp164
g65
(dp165
sg74
g150
sg67
(lp166
g60
(g61
g62
NtRp167
(dp168
g65
(dp169
g73
I5
ssg74
g163
sg67
(lp170
S'<cStringIO.StringO object at 0xa232da0>'
p171
asbasbasbag60
(g76
g62
NtRp172
(dp173
g65
(dp174
sg74
g70
sg67
(lp175
g60
(g81
g62
NtRp176
(dp177
g65
(dp178
g85
g86
ssg74
g172
sg67
(lp179
S'cid'
p180
asbag60
(g81
g62
NtRp181
(dp182
g65
(dp183
g92
g93
ssg74
g172
sg67
(lp184
S':'
asbag60
(g81
g62
NtRp185
(dp186
g65
(dp187
sg74
g172
sg67
(lp188
g60
(g61
g62
NtRp189
(dp190
g65
(dp191
g73
I5
ssg74
g185
sg67
(lp192
S'None'
p193
asbasbasbag60
(g76
g62
NtRp194
(dp195
g65
(dp196
sg74
g70
sg67
(lp197
g60
(g81
g62
NtRp198
(dp199
g65
(dp200
g85
g86
ssg74
g194
sg67
(lp201
S'client'
p202
asbag60
(g81
g62
NtRp203
(dp204
g65
(dp205
g92
g93
ssg74
g194
sg67
(lp206
S':'
asbag60
(g81
g62
NtRp207
(dp208
g65
(dp209
sg74
g194
sg67
(lp210
g60
(g61
g62
NtRp211
(dp212
g65
(dp213
g73
I5
ssg74
g207
sg67
(lp214
S'127.0.0.1'
p215
asbasbasbag60
(g76
g62
NtRp216
(dp217
g65
(dp218
sg74
g70
sg67
(lp219
g60
(g81
g62
NtRp220
(dp221
g65
(dp222
g85
g86
ssg74
g216
sg67
(lp223
S'controller'
p224
asbag60
(g81
g62
NtRp225
(dp226
g65
(dp227
g92
g93
ssg74
g216
sg67
(lp228
S':'
asbag60
(g81
g62
NtRp229
(dp230
g65
(dp231
sg74
g216
sg67
(lp232
g60
(g61
g62
NtRp233
(dp234
g65
(dp235
g73
I5
ssg74
g229
sg67
(lp236
S'default'
p237
asbasbasbag60
(g76
g62
NtRp238
(dp239
g65
(dp240
sg74
g70
sg67
(lp241
g60
(g81
g62
NtRp242
(dp243
g65
(dp244
g85
g86
ssg74
g238
sg67
(lp245
S'cookies'
p246
asbag60
(g81
g62
NtRp247
(dp248
g65
(dp249
g92
g93
ssg74
g238
sg67
(lp250
S':'
asbag60
(g81
g62
NtRp251
(dp252
g65
(dp253
sg74
g238
sg67
(lp254
g60
(g61
g62
NtRp255
(dp256
g65
(dp257
g73
I5
ssg74
g251
sg67
(lp258
g60
(g69
g62
NtRp259
(dp260
g65
(dp261
g73
I4
ssg74
Nsg67
(lp262
g60
(g76
g62
NtRp263
(dp264
g65
(dp265
sg74
g259
sg67
(lp266
g60
(g81
g62
NtRp267
(dp268
g65
(dp269
g85
g86
ssg74
g263
sg67
(lp270
S'session_id_admin'
p271
asbag60
(g81
g62
NtRp272
(dp273
g65
(dp274
g92
g93
ssg74
g263
sg67
(lp275
S':'
asbag60
(g81
g62
NtRp276
(dp277
g65
(dp278
sg74
g263
sg67
(lp279
g60
(g61
g62
NtRp280
(dp281
g65
(dp282
g73
I4
ssg74
g276
sg67
(lp283
S'127.0.0.1-a9f3a8b4-34a5-483c-9aa9-3d500e71f00c'
p284
ag60
(g69
g62
NtRp285
(dp286
g65
(dp287
g73
I3
ssg74
Nsg67
(lp288
g60
(g76
g62
NtRp289
(dp290
g65
(dp291
sg74
g285
sg67
(lp292
g60
(g81
g62
NtRp293
(dp294
g65
(dp295
g85
g86
ssg74
g289
sg67
(lp296
S'comment'
p297
asbag60
(g81
g62
NtRp298
(dp299
g65
(dp300
g92
g93
ssg74
g289
sg67
(lp301
S':'
asbag60
(g81
g62
NtRp302
(dp303
g65
(dp304
sg74
g289
sg67
(lp305
g60
(g61
g62
NtRp306
(dp307
g65
(dp308
g73
I3
ssg74
g302
sg67
(lp309
S''
asbasbasbag60
(g76
g62
NtRp310
(dp311
g65
(dp312
sg74
g285
sg67
(lp313
g60
(g81
g62
NtRp314
(dp315
g65
(dp316
g85
g86
ssg74
g310
sg67
(lp317
S'domain'
p318
asbag60
(g81
g62
NtRp319
(dp320
g65
(dp321
g92
g93
ssg74
g310
sg67
(lp322
S':'
asbag60
(g81
g62
NtRp323
(dp324
g65
(dp325
sg74
g310
sg67
(lp326
g60
(g61
g62
NtRp327
(dp328
g65
(dp329
g73
I3
ssg74
g323
sg67
(lp330
S''
asbasbasbag60
(g76
g62
NtRp331
(dp332
g65
(dp333
sg74
g285
sg67
(lp334
g60
(g81
g62
NtRp335
(dp336
g65
(dp337
g85
g86
ssg74
g331
sg67
(lp338
S'expires'
p339
asbag60
(g81
g62
NtRp340
(dp341
g65
(dp342
g92
g93
ssg74
g331
sg67
(lp343
S':'
asbag60
(g81
g62
NtRp344
(dp345
g65
(dp346
sg74
g331
sg67
(lp347
g60
(g61
g62
NtRp348
(dp349
g65
(dp350
g73
I3
ssg74
g344
sg67
(lp351
S''
asbasbasbag60
(g76
g62
NtRp352
(dp353
g65
(dp354
sg74
g285
sg67
(lp355
g60
(g81
g62
NtRp356
(dp357
g65
(dp358
g85
g86
ssg74
g352
sg67
(lp359
S'max-age'
p360
asbag60
(g81
g62
NtRp361
(dp362
g65
(dp363
g92
g93
ssg74
g352
sg67
(lp364
S':'
asbag60
(g81
g62
NtRp365
(dp366
g65
(dp367
sg74
g352
sg67
(lp368
g60
(g61
g62
NtRp369
(dp370
g65
(dp371
g73
I3
ssg74
g365
sg67
(lp372
S''
asbasbasbag60
(g76
g62
NtRp373
(dp374
g65
(dp375
sg74
g285
sg67
(lp376
g60
(g81
g62
NtRp377
(dp378
g65
(dp379
g85
g86
ssg74
g373
sg67
(lp380
S'path'
p381
asbag60
(g81
g62
NtRp382
(dp383
g65
(dp384
g92
g93
ssg74
g373
sg67
(lp385
S':'
asbag60
(g81
g62
NtRp386
(dp387
g65
(dp388
sg74
g373
sg67
(lp389
g60
(g61
g62
NtRp390
(dp391
g65
(dp392
g73
I3
ssg74
g386
sg67
(lp393
S''
asbasbasbag60
(g76
g62
NtRp394
(dp395
g65
(dp396
sg74
g285
sg67
(lp397
g60
(g81
g62
NtRp398
(dp399
g65
(dp400
g85
g86
ssg74
g394
sg67
(lp401
S'secure'
p402
asbag60
(g81
g62
NtRp403
(dp404
g65
(dp405
g92
g93
ssg74
g394
sg67
(lp406
S':'
asbag60
(g81
g62
NtRp407
(dp408
g65
(dp409
sg74
g394
sg67
(lp410
g60
(g61
g62
NtRp411
(dp412
g65
(dp413
g73
I3
ssg74
g407
sg67
(lp414
S''
asbasbasbag60
(g76
g62
NtRp415
(dp416
g65
(dp417
sg74
g285
sg67
(lp418
g60
(g81
g62
NtRp419
(dp420
g65
(dp421
g85
g86
ssg74
g415
sg67
(lp422
S'version'
p423
asbag60
(g81
g62
NtRp424
(dp425
g65
(dp426
g92
g93
ssg74
g415
sg67
(lp427
S':'
asbag60
(g81
g62
NtRp428
(dp429
g65
(dp430
sg74
g415
sg67
(lp431
g60
(g61
g62
NtRp432
(dp433
g65
(dp434
g73
I3
ssg74
g428
sg67
(lp435
S''
asbasbasbasbasbasbasbag60
(g76
g62
NtRp436
(dp437
g65
(dp438
sg74
g259
sg67
(lp439
g60
(g81
g62
NtRp440
(dp441
g65
(dp442
g85
g86
ssg74
g436
sg67
(lp443
S'session_id_mifacebook'
p444
asbag60
(g81
g62
NtRp445
(dp446
g65
(dp447
g92
g93
ssg74
g436
sg67
(lp448
S':'
asbag60
(g81
g62
NtRp449
(dp450
g65
(dp451
sg74
g436
sg67
(lp452
g60
(g61
g62
NtRp453
(dp454
g65
(dp455
g73
I4
ssg74
g449
sg67
(lp456
S'127.0.0.1-05de177b-62db-48b0-aa89-2aa07a9430e3'
p457
ag60
(g69
g62
NtRp458
(dp459
g65
(dp460
g73
I3
ssg74
Nsg67
(lp461
g60
(g76
g62
NtRp462
(dp463
g65
(dp464
sg74
g458
sg67
(lp465
g60
(g81
g62
NtRp466
(dp467
g65
(dp468
g85
g86
ssg74
g462
sg67
(lp469
g297
asbag60
(g81
g62
NtRp470
(dp471
g65
(dp472
g92
g93
ssg74
g462
sg67
(lp473
S':'
asbag60
(g81
g62
NtRp474
(dp475
g65
(dp476
sg74
g462
sg67
(lp477
g60
(g61
g62
NtRp478
(dp479
g65
(dp480
g73
I3
ssg74
g474
sg67
(lp481
S''
asbasbasbag60
(g76
g62
NtRp482
(dp483
g65
(dp484
sg74
g458
sg67
(lp485
g60
(g81
g62
NtRp486
(dp487
g65
(dp488
g85
g86
ssg74
g482
sg67
(lp489
g318
asbag60
(g81
g62
NtRp490
(dp491
g65
(dp492
g92
g93
ssg74
g482
sg67
(lp493
S':'
asbag60
(g81
g62
NtRp494
(dp495
g65
(dp496
sg74
g482
sg67
(lp497
g60
(g61
g62
NtRp498
(dp499
g65
(dp500
g73
I3
ssg74
g494
sg67
(lp501
S''
asbasbasbag60
(g76
g62
NtRp502
(dp503
g65
(dp504
sg74
g458
sg67
(lp505
g60
(g81
g62
NtRp506
(dp507
g65
(dp508
g85
g86
ssg74
g502
sg67
(lp509
g339
asbag60
(g81
g62
NtRp510
(dp511
g65
(dp512
g92
g93
ssg74
g502
sg67
(lp513
S':'
asbag60
(g81
g62
NtRp514
(dp515
g65
(dp516
sg74
g502
sg67
(lp517
g60
(g61
g62
NtRp518
(dp519
g65
(dp520
g73
I3
ssg74
g514
sg67
(lp521
S''
asbasbasbag60
(g76
g62
NtRp522
(dp523
g65
(dp524
sg74
g458
sg67
(lp525
g60
(g81
g62
NtRp526
(dp527
g65
(dp528
g85
g86
ssg74
g522
sg67
(lp529
g360
asbag60
(g81
g62
NtRp530
(dp531
g65
(dp532
g92
g93
ssg74
g522
sg67
(lp533
S':'
asbag60
(g81
g62
NtRp534
(dp535
g65
(dp536
sg74
g522
sg67
(lp537
g60
(g61
g62
NtRp538
(dp539
g65
(dp540
g73
I3
ssg74
g534
sg67
(lp541
S''
asbasbasbag60
(g76
g62
NtRp542
(dp543
g65
(dp544
sg74
g458
sg67
(lp545
g60
(g81
g62
NtRp546
(dp547
g65
(dp548
g85
g86
ssg74
g542
sg67
(lp549
g381
asbag60
(g81
g62
NtRp550
(dp551
g65
(dp552
g92
g93
ssg74
g542
sg67
(lp553
S':'
asbag60
(g81
g62
NtRp554
(dp555
g65
(dp556
sg74
g542
sg67
(lp557
g60
(g61
g62
NtRp558
(dp559
g65
(dp560
g73
I3
ssg74
g554
sg67
(lp561
S''
asbasbasbag60
(g76
g62
NtRp562
(dp563
g65
(dp564
sg74
g458
sg67
(lp565
g60
(g81
g62
NtRp566
(dp567
g65
(dp568
g85
g86
ssg74
g562
sg67
(lp569
g402
asbag60
(g81
g62
NtRp570
(dp571
g65
(dp572
g92
g93
ssg74
g562
sg67
(lp573
S':'
asbag60
(g81
g62
NtRp574
(dp575
g65
(dp576
sg74
g562
sg67
(lp577
g60
(g61
g62
NtRp578
(dp579
g65
(dp580
g73
I3
ssg74
g574
sg67
(lp581
S''
asbasbasbag60
(g76
g62
NtRp582
(dp583
g65
(dp584
sg74
g458
sg67
(lp585
g60
(g81
g62
NtRp586
(dp587
g65
(dp588
g85
g86
ssg74
g582
sg67
(lp589
g423
asbag60
(g81
g62
NtRp590
(dp591
g65
(dp592
g92
g93
ssg74
g582
sg67
(lp593
S':'
asbag60
(g81
g62
NtRp594
(dp595
g65
(dp596
sg74
g582
sg67
(lp597
g60
(g61
g62
NtRp598
(dp599
g65
(dp600
g73
I3
ssg74
g594
sg67
(lp601
S''
asbasbasbasbasbasbasbag60
(g76
g62
NtRp602
(dp603
g65
(dp604
sg74
g259
sg67
(lp605
g60
(g81
g62
NtRp606
(dp607
g65
(dp608
g85
g86
ssg74
g602
sg67
(lp609
S'session_id_ticketealo'
p610
asbag60
(g81
g62
NtRp611
(dp612
g65
(dp613
g92
g93
ssg74
g602
sg67
(lp614
S':'
asbag60
(g81
g62
NtRp615
(dp616
g65
(dp617
sg74
g602
sg67
(lp618
g60
(g61
g62
NtRp619
(dp620
g65
(dp621
g73
I4
ssg74
g615
sg67
(lp622
S'127.0.0.1-ee6b1252-5e9e-4c19-b834-3e24bec5592e'
p623
ag60
(g69
g62
NtRp624
(dp625
g65
(dp626
g73
I3
ssg74
Nsg67
(lp627
g60
(g76
g62
NtRp628
(dp629
g65
(dp630
sg74
g624
sg67
(lp631
g60
(g81
g62
NtRp632
(dp633
g65
(dp634
g85
g86
ssg74
g628
sg67
(lp635
g297
asbag60
(g81
g62
NtRp636
(dp637
g65
(dp638
g92
g93
ssg74
g628
sg67
(lp639
S':'
asbag60
(g81
g62
NtRp640
(dp641
g65
(dp642
sg74
g628
sg67
(lp643
g60
(g61
g62
NtRp644
(dp645
g65
(dp646
g73
I3
ssg74
g640
sg67
(lp647
S''
asbasbasbag60
(g76
g62
NtRp648
(dp649
g65
(dp650
sg74
g624
sg67
(lp651
g60
(g81
g62
NtRp652
(dp653
g65
(dp654
g85
g86
ssg74
g648
sg67
(lp655
g318
asbag60
(g81
g62
NtRp656
(dp657
g65
(dp658
g92
g93
ssg74
g648
sg67
(lp659
S':'
asbag60
(g81
g62
NtRp660
(dp661
g65
(dp662
sg74
g648
sg67
(lp663
g60
(g61
g62
NtRp664
(dp665
g65
(dp666
g73
I3
ssg74
g660
sg67
(lp667
S''
asbasbasbag60
(g76
g62
NtRp668
(dp669
g65
(dp670
sg74
g624
sg67
(lp671
g60
(g81
g62
NtRp672
(dp673
g65
(dp674
g85
g86
ssg74
g668
sg67
(lp675
g339
asbag60
(g81
g62
NtRp676
(dp677
g65
(dp678
g92
g93
ssg74
g668
sg67
(lp679
S':'
asbag60
(g81
g62
NtRp680
(dp681
g65
(dp682
sg74
g668
sg67
(lp683
g60
(g61
g62
NtRp684
(dp685
g65
(dp686
g73
I3
ssg74
g680
sg67
(lp687
S''
asbasbasbag60
(g76
g62
NtRp688
(dp689
g65
(dp690
sg74
g624
sg67
(lp691
g60
(g81
g62
NtRp692
(dp693
g65
(dp694
g85
g86
ssg74
g688
sg67
(lp695
g360
asbag60
(g81
g62
NtRp696
(dp697
g65
(dp698
g92
g93
ssg74
g688
sg67
(lp699
S':'
asbag60
(g81
g62
NtRp700
(dp701
g65
(dp702
sg74
g688
sg67
(lp703
g60
(g61
g62
NtRp704
(dp705
g65
(dp706
g73
I3
ssg74
g700
sg67
(lp707
S''
asbasbasbag60
(g76
g62
NtRp708
(dp709
g65
(dp710
sg74
g624
sg67
(lp711
g60
(g81
g62
NtRp712
(dp713
g65
(dp714
g85
g86
ssg74
g708
sg67
(lp715
g381
asbag60
(g81
g62
NtRp716
(dp717
g65
(dp718
g92
g93
ssg74
g708
sg67
(lp719
S':'
asbag60
(g81
g62
NtRp720
(dp721
g65
(dp722
sg74
g708
sg67
(lp723
g60
(g61
g62
NtRp724
(dp725
g65
(dp726
g73
I3
ssg74
g720
sg67
(lp727
S''
asbasbasbag60
(g76
g62
NtRp728
(dp729
g65
(dp730
sg74
g624
sg67
(lp731
g60
(g81
g62
NtRp732
(dp733
g65
(dp734
g85
g86
ssg74
g728
sg67
(lp735
g402
asbag60
(g81
g62
NtRp736
(dp737
g65
(dp738
g92
g93
ssg74
g728
sg67
(lp739
S':'
asbag60
(g81
g62
NtRp740
(dp741
g65
(dp742
sg74
g728
sg67
(lp743
g60
(g61
g62
NtRp744
(dp745
g65
(dp746
g73
I3
ssg74
g740
sg67
(lp747
S''
asbasbasbag60
(g76
g62
NtRp748
(dp749
g65
(dp750
sg74
g624
sg67
(lp751
g60
(g81
g62
NtRp752
(dp753
g65
(dp754
g85
g86
ssg74
g748
sg67
(lp755
g423
asbag60
(g81
g62
NtRp756
(dp757
g65
(dp758
g92
g93
ssg74
g748
sg67
(lp759
S':'
asbag60
(g81
g62
NtRp760
(dp761
g65
(dp762
sg74
g748
sg67
(lp763
g60
(g61
g62
NtRp764
(dp765
g65
(dp766
g73
I3
ssg74
g760
sg67
(lp767
S''
asbasbasbasbasbasbasbag60
(g76
g62
NtRp768
(dp769
g65
(dp770
sg74
g259
sg67
(lp771
g60
(g81
g62
NtRp772
(dp773
g65
(dp774
g85
g86
ssg74
g768
sg67
(lp775
S'session_id_welcome'
p776
asbag60
(g81
g62
NtRp777
(dp778
g65
(dp779
g92
g93
ssg74
g768
sg67
(lp780
S':'
asbag60
(g81
g62
NtRp781
(dp782
g65
(dp783
sg74
g768
sg67
(lp784
g60
(g61
g62
NtRp785
(dp786
g65
(dp787
g73
I4
ssg74
g781
sg67
(lp788
S'127.0.0.1-fb228a9b-2978-48d8-b012-9dfe4c9f9769'
p789
ag60
(g69
g62
NtRp790
(dp791
g65
(dp792
g73
I3
ssg74
Nsg67
(lp793
g60
(g76
g62
NtRp794
(dp795
g65
(dp796
sg74
g790
sg67
(lp797
g60
(g81
g62
NtRp798
(dp799
g65
(dp800
g85
g86
ssg74
g794
sg67
(lp801
g297
asbag60
(g81
g62
NtRp802
(dp803
g65
(dp804
g92
g93
ssg74
g794
sg67
(lp805
S':'
asbag60
(g81
g62
NtRp806
(dp807
g65
(dp808
sg74
g794
sg67
(lp809
g60
(g61
g62
NtRp810
(dp811
g65
(dp812
g73
I3
ssg74
g806
sg67
(lp813
S''
asbasbasbag60
(g76
g62
NtRp814
(dp815
g65
(dp816
sg74
g790
sg67
(lp817
g60
(g81
g62
NtRp818
(dp819
g65
(dp820
g85
g86
ssg74
g814
sg67
(lp821
g318
asbag60
(g81
g62
NtRp822
(dp823
g65
(dp824
g92
g93
ssg74
g814
sg67
(lp825
S':'
asbag60
(g81
g62
NtRp826
(dp827
g65
(dp828
sg74
g814
sg67
(lp829
g60
(g61
g62
NtRp830
(dp831
g65
(dp832
g73
I3
ssg74
g826
sg67
(lp833
S''
asbasbasbag60
(g76
g62
NtRp834
(dp835
g65
(dp836
sg74
g790
sg67
(lp837
g60
(g81
g62
NtRp838
(dp839
g65
(dp840
g85
g86
ssg74
g834
sg67
(lp841
g339
asbag60
(g81
g62
NtRp842
(dp843
g65
(dp844
g92
g93
ssg74
g834
sg67
(lp845
S':'
asbag60
(g81
g62
NtRp846
(dp847
g65
(dp848
sg74
g834
sg67
(lp849
g60
(g61
g62
NtRp850
(dp851
g65
(dp852
g73
I3
ssg74
g846
sg67
(lp853
S''
asbasbasbag60
(g76
g62
NtRp854
(dp855
g65
(dp856
sg74
g790
sg67
(lp857
g60
(g81
g62
NtRp858
(dp859
g65
(dp860
g85
g86
ssg74
g854
sg67
(lp861
g360
asbag60
(g81
g62
NtRp862
(dp863
g65
(dp864
g92
g93
ssg74
g854
sg67
(lp865
S':'
asbag60
(g81
g62
NtRp866
(dp867
g65
(dp868
sg74
g854
sg67
(lp869
g60
(g61
g62
NtRp870
(dp871
g65
(dp872
g73
I3
ssg74
g866
sg67
(lp873
S''
asbasbasbag60
(g76
g62
NtRp874
(dp875
g65
(dp876
sg74
g790
sg67
(lp877
g60
(g81
g62
NtRp878
(dp879
g65
(dp880
g85
g86
ssg74
g874
sg67
(lp881
g381
asbag60
(g81
g62
NtRp882
(dp883
g65
(dp884
g92
g93
ssg74
g874
sg67
(lp885
S':'
asbag60
(g81
g62
NtRp886
(dp887
g65
(dp888
sg74
g874
sg67
(lp889
g60
(g61
g62
NtRp890
(dp891
g65
(dp892
g73
I3
ssg74
g886
sg67
(lp893
S''
asbasbasbag60
(g76
g62
NtRp894
(dp895
g65
(dp896
sg74
g790
sg67
(lp897
g60
(g81
g62
NtRp898
(dp899
g65
(dp900
g85
g86
ssg74
g894
sg67
(lp901
g402
asbag60
(g81
g62
NtRp902
(dp903
g65
(dp904
g92
g93
ssg74
g894
sg67
(lp905
S':'
asbag60
(g81
g62
NtRp906
(dp907
g65
(dp908
sg74
g894
sg67
(lp909
g60
(g61
g62
NtRp910
(dp911
g65
(dp912
g73
I3
ssg74
g906
sg67
(lp913
S''
asbasbasbag60
(g76
g62
NtRp914
(dp915
g65
(dp916
sg74
g790
sg67
(lp917
g60
(g81
g62
NtRp918
(dp919
g65
(dp920
g85
g86
ssg74
g914
sg67
(lp921
g423
asbag60
(g81
g62
NtRp922
(dp923
g65
(dp924
g92
g93
ssg74
g914
sg67
(lp925
S':'
asbag60
(g81
g62
NtRp926
(dp927
g65
(dp928
sg74
g914
sg67
(lp929
g60
(g61
g62
NtRp930
(dp931
g65
(dp932
g73
I3
ssg74
g926
sg67
(lp933
S''
asbasbasbasbasbasbasbasbasbasbasbag60
(g76
g62
NtRp934
(dp935
g65
(dp936
sg74
g70
sg67
(lp937
g60
(g81
g62
NtRp938
(dp939
g65
(dp940
g85
g86
ssg74
g934
sg67
(lp941
S'env'
p942
asbag60
(g81
g62
NtRp943
(dp944
g65
(dp945
g92
g93
ssg74
g934
sg67
(lp946
S':'
asbag60
(g81
g62
NtRp947
(dp948
g65
(dp949
sg74
g934
sg67
(lp950
g60
(g61
g62
NtRp951
(dp952
g65
(dp953
g73
I5
ssg74
g947
sg67
(lp954
g60
(g69
g62
NtRp955
(dp956
g65
(dp957
g73
I4
ssg74
Nsg67
(lp958
g60
(g76
g62
NtRp959
(dp960
g65
(dp961
sg74
g955
sg67
(lp962
g60
(g81
g62
NtRp963
(dp964
g65
(dp965
g85
g86
ssg74
g959
sg67
(lp966
S'app_folders'
p967
asbag60
(g81
g62
NtRp968
(dp969
g65
(dp970
g92
g93
ssg74
g959
sg67
(lp971
S':'
asbag60
(g81
g62
NtRp972
(dp973
g65
(dp974
sg74
g959
sg67
(lp975
g60
(g61
g62
NtRp976
(dp977
g65
(dp978
g73
I4
ssg74
g972
sg67
(lp979
S"set(['/Applications/web2py.app/Contents/Resources/applications/miFacebook/', '/Applications/web2py.app/Contents/Resources/applications/admin/', '/Applications/web2py.app/Contents/Resources/applications/welcome/', '/Applications/web2py.app/Contents/Resources/applications/ticketealo/'])"
p980
asbasbasbag60
(g76
g62
NtRp981
(dp982
g65
(dp983
sg74
g955
sg67
(lp984
g60
(g81
g62
NtRp985
(dp986
g65
(dp987
g85
g86
ssg74
g981
sg67
(lp988
S'applications_parent'
p989
asbag60
(g81
g62
NtRp990
(dp991
g65
(dp992
g92
g93
ssg74
g981
sg67
(lp993
S':'
asbag60
(g81
g62
NtRp994
(dp995
g65
(dp996
sg74
g981
sg67
(lp997
g60
(g61
g62
NtRp998
(dp999
g65
(dp1000
g73
I4
ssg74
g994
sg67
(lp1001
S'/Applications/web2py.app/Contents/Resources'
p1002
asbasbasbag60
(g76
g62
NtRp1003
(dp1004
g65
(dp1005
sg74
g955
sg67
(lp1006
g60
(g81
g62
NtRp1007
(dp1008
g65
(dp1009
g85
g86
ssg74
g1003
sg67
(lp1010
S'cmd_args'
p1011
asbag60
(g81
g62
NtRp1012
(dp1013
g65
(dp1014
g92
g93
ssg74
g1003
sg67
(lp1015
S':'
asbag60
(g81
g62
NtRp1016
(dp1017
g65
(dp1018
sg74
g1003
sg67
(lp1019
g60
(g61
g62
NtRp1020
(dp1021
g65
(dp1022
g73
I4
ssg74
g1016
sg67
(lp1023
g60
(g69
g62
NtRp1024
(dp1025
g65
(dp1026
g73
I3
ssg74
Nsg67
(lp1027
sbasbasbasbag60
(g76
g62
NtRp1028
(dp1029
g65
(dp1030
sg74
g955
sg67
(lp1031
g60
(g81
g62
NtRp1032
(dp1033
g65
(dp1034
g85
g86
ssg74
g1028
sg67
(lp1035
S'cmd_options'
p1036
asbag60
(g81
g62
NtRp1037
(dp1038
g65
(dp1039
g92
g93
ssg74
g1028
sg67
(lp1040
S':'
asbag60
(g81
g62
NtRp1041
(dp1042
g65
(dp1043
sg74
g1028
sg67
(lp1044
g60
(g61
g62
NtRp1045
(dp1046
g65
(dp1047
g73
I4
ssg74
g1041
sg67
(lp1048
S"<Values at 0x59bd8f0: {'verbose': False, 'ip': '127.0.0.1', 'with_scheduler': False, 'ips': ['172.30.12.190'], 'shutdown_timeout': 5, 'taskbar': False, 'port': 8000, 'maxthreads': None, 'softcron': False, 'server_name': 'MacBook-Pro-de-Alberto.local', 'bpython': False, 'nogui': False, 'nocron': False, 'extcron': False, 'run_system_tests': False, 'test': None, 'folder': '/Applications/web2py.app/Contents/Resources', 'config': '', 'import_models': False, 'winservice': '', 'shell': None, 'run': '', 'log_filename': 'httpserver.log', 'debuglevel': 30, 'args': [''], 'socket_timeout': 5, 'ssl_ca_certificate': None, 'scheduler': None, 'profiler_filename': None, 'ssl_private_key': '', 'scheduler_groups': None, 'password': '<ask>', 'request_queue_size': 5, 'ssl_certificate': '', 'cronjob': False, 'numthreads': None, 'quiet': False, 'interfaces': None, 'minthreads': None, 'timeout': 10, 'plain': False, 'nobanner': False, 'pid_filename': 'httpserver.pid'}>"
p1049
asbasbasbag60
(g76
g62
NtRp1050
(dp1051
g65
(dp1052
sg74
g955
sg67
(lp1053
g60
(g81
g62
NtRp1054
(dp1055
g65
(dp1056
g85
g86
ssg74
g1050
sg67
(lp1057
S'db_sessions'
p1058
asbag60
(g81
g62
NtRp1059
(dp1060
g65
(dp1061
g92
g93
ssg74
g1050
sg67
(lp1062
S':'
asbag60
(g81
g62
NtRp1063
(dp1064
g65
(dp1065
sg74
g1050
sg67
(lp1066
g60
(g61
g62
NtRp1067
(dp1068
g65
(dp1069
g73
I4
ssg74
g1063
sg67
(lp1070
S'set([])'
p1071
asbasbasbag60
(g76
g62
NtRp1072
(dp1073
g65
(dp1074
sg74
g955
sg67
(lp1075
g60
(g81
g62
NtRp1076
(dp1077
g65
(dp1078
g85
g86
ssg74
g1072
sg67
(lp1079
S'debugging'
p1080
asbag60
(g81
g62
NtRp1081
(dp1082
g65
(dp1083
g92
g93
ssg74
g1072
sg67
(lp1084
S':'
asbag60
(g81
g62
NtRp1085
(dp1086
g65
(dp1087
sg74
g1072
sg67
(lp1088
g60
(g61
g62
NtRp1089
(dp1090
g65
(dp1091
g73
I4
ssg74
g1085
sg67
(lp1092
g103
asbasbasbag60
(g76
g62
NtRp1093
(dp1094
g65
(dp1095
sg74
g955
sg67
(lp1096
g60
(g81
g62
NtRp1097
(dp1098
g65
(dp1099
g85
g86
ssg74
g1093
sg67
(lp1100
S'gluon_parent'
p1101
asbag60
(g81
g62
NtRp1102
(dp1103
g65
(dp1104
g92
g93
ssg74
g1093
sg67
(lp1105
S':'
asbag60
(g81
g62
NtRp1106
(dp1107
g65
(dp1108
sg74
g1093
sg67
(lp1109
g60
(g61
g62
NtRp1110
(dp1111
g65
(dp1112
g73
I4
ssg74
g1106
sg67
(lp1113
S'/Applications/web2py.app/Contents/Resources'
p1114
asbasbasbag60
(g76
g62
NtRp1115
(dp1116
g65
(dp1117
sg74
g955
sg67
(lp1118
g60
(g81
g62
NtRp1119
(dp1120
g65
(dp1121
g85
g86
ssg74
g1115
sg67
(lp1122
S'http_accept'
p1123
asbag60
(g81
g62
NtRp1124
(dp1125
g65
(dp1126
g92
g93
ssg74
g1115
sg67
(lp1127
S':'
asbag60
(g81
g62
NtRp1128
(dp1129
g65
(dp1130
sg74
g1115
sg67
(lp1131
g60
(g61
g62
NtRp1132
(dp1133
g65
(dp1134
g73
I4
ssg74
g1128
sg67
(lp1135
S'text/html,application/xhtml+xml,application/xml;q=0.9,*/*;q=0.8'
p1136
asbasbasbag60
(g76
g62
NtRp1137
(dp1138
g65
(dp1139
sg74
g955
sg67
(lp1140
g60
(g81
g62
NtRp1141
(dp1142
g65
(dp1143
g85
g86
ssg74
g1137
sg67
(lp1144
S'http_accept_charset'
p1145
asbag60
(g81
g62
NtRp1146
(dp1147
g65
(dp1148
g92
g93
ssg74
g1137
sg67
(lp1149
S':'
asbag60
(g81
g62
NtRp1150
(dp1151
g65
(dp1152
sg74
g1137
sg67
(lp1153
g60
(g61
g62
NtRp1154
(dp1155
g65
(dp1156
g73
I4
ssg74
g1150
sg67
(lp1157
S'ISO-8859-1,utf-8;q=0.7,*;q=0.3'
p1158
asbasbasbag60
(g76
g62
NtRp1159
(dp1160
g65
(dp1161
sg74
g955
sg67
(lp1162
g60
(g81
g62
NtRp1163
(dp1164
g65
(dp1165
g85
g86
ssg74
g1159
sg67
(lp1166
S'http_accept_encoding'
p1167
asbag60
(g81
g62
NtRp1168
(dp1169
g65
(dp1170
g92
g93
ssg74
g1159
sg67
(lp1171
S':'
asbag60
(g81
g62
NtRp1172
(dp1173
g65
(dp1174
sg74
g1159
sg67
(lp1175
g60
(g61
g62
NtRp1176
(dp1177
g65
(dp1178
g73
I4
ssg74
g1172
sg67
(lp1179
S'gzip,deflate,sdch'
p1180
asbasbasbag60
(g76
g62
NtRp1181
(dp1182
g65
(dp1183
sg74
g955
sg67
(lp1184
g60
(g81
g62
NtRp1185
(dp1186
g65
(dp1187
g85
g86
ssg74
g1181
sg67
(lp1188
S'http_accept_language'
p1189
asbag60
(g81
g62
NtRp1190
(dp1191
g65
(dp1192
g92
g93
ssg74
g1181
sg67
(lp1193
S':'
asbag60
(g81
g62
NtRp1194
(dp1195
g65
(dp1196
sg74
g1181
sg67
(lp1197
g60
(g61
g62
NtRp1198
(dp1199
g65
(dp1200
g73
I4
ssg74
g1194
sg67
(lp1201
S'en-US,en;q=0.8'
p1202
asbasbasbag60
(g76
g62
NtRp1203
(dp1204
g65
(dp1205
sg74
g955
sg67
(lp1206
g60
(g81
g62
NtRp1207
(dp1208
g65
(dp1209
g85
g86
ssg74
g1203
sg67
(lp1210
S'http_connection'
p1211
asbag60
(g81
g62
NtRp1212
(dp1213
g65
(dp1214
g92
g93
ssg74
g1203
sg67
(lp1215
S':'
asbag60
(g81
g62
NtRp1216
(dp1217
g65
(dp1218
sg74
g1203
sg67
(lp1219
g60
(g61
g62
NtRp1220
(dp1221
g65
(dp1222
g73
I4
ssg74
g1216
sg67
(lp1223
S'keep-alive'
p1224
asbasbasbag60
(g76
g62
NtRp1225
(dp1226
g65
(dp1227
sg74
g955
sg67
(lp1228
g60
(g81
g62
NtRp1229
(dp1230
g65
(dp1231
g85
g86
ssg74
g1225
sg67
(lp1232
S'http_cookie'
p1233
asbag60
(g81
g62
NtRp1234
(dp1235
g65
(dp1236
g92
g93
ssg74
g1225
sg67
(lp1237
S':'
asbag60
(g81
g62
NtRp1238
(dp1239
g65
(dp1240
sg74
g1225
sg67
(lp1241
g60
(g61
g62
NtRp1242
(dp1243
g65
(dp1244
g73
I4
ssg74
g1238
sg67
(lp1245
S'session_id_ticketealo=127.0.0.1-ee6b1252-5e9e-4c19-b834-3e24bec5592e; session_id_welcome=127.0.0.1-fb228a9b-2978-48d8-b012-9dfe4c9f9769; session_id_mifacebook=127.0.0.1-05de177b-62db-48b0-aa89-2aa07a9430e3; session_id_admin=127.0.0.1-a9f3a8b4-34a5-483c-9aa9-3d500e71f00c'
p1246
asbasbasbag60
(g76
g62
NtRp1247
(dp1248
g65
(dp1249
sg74
g955
sg67
(lp1250
g60
(g81
g62
NtRp1251
(dp1252
g65
(dp1253
g85
g86
ssg74
g1247
sg67
(lp1254
S'http_host'
p1255
asbag60
(g81
g62
NtRp1256
(dp1257
g65
(dp1258
g92
g93
ssg74
g1247
sg67
(lp1259
S':'
asbag60
(g81
g62
NtRp1260
(dp1261
g65
(dp1262
sg74
g1247
sg67
(lp1263
g60
(g61
g62
NtRp1264
(dp1265
g65
(dp1266
g73
I4
ssg74
g1260
sg67
(lp1267
S'127.0.0.1:8000'
p1268
asbasbasbag60
(g76
g62
NtRp1269
(dp1270
g65
(dp1271
sg74
g955
sg67
(lp1272
g60
(g81
g62
NtRp1273
(dp1274
g65
(dp1275
g85
g86
ssg74
g1269
sg67
(lp1276
S'http_user_agent'
p1277
asbag60
(g81
g62
NtRp1278
(dp1279
g65
(dp1280
g92
g93
ssg74
g1269
sg67
(lp1281
S':'
asbag60
(g81
g62
NtRp1282
(dp1283
g65
(dp1284
sg74
g1269
sg67
(lp1285
g60
(g61
g62
NtRp1286
(dp1287
g65
(dp1288
g73
I4
ssg74
g1282
sg67
(lp1289
S'Mozilla/5.0 (Macintosh; Intel Mac OS X 10_8_2) AppleWebKit/537.4 (KHTML, like Gecko) Chrome/22.0.1229.94 Safari/537.4'
p1290
asbasbasbag60
(g76
g62
NtRp1291
(dp1292
g65
(dp1293
sg74
g955
sg67
(lp1294
g60
(g81
g62
NtRp1295
(dp1296
g65
(dp1297
g85
g86
ssg74
g1291
sg67
(lp1298
S'is_jython'
p1299
asbag60
(g81
g62
NtRp1300
(dp1301
g65
(dp1302
g92
g93
ssg74
g1291
sg67
(lp1303
S':'
asbag60
(g81
g62
NtRp1304
(dp1305
g65
(dp1306
sg74
g1291
sg67
(lp1307
g60
(g61
g62
NtRp1308
(dp1309
g65
(dp1310
g73
I4
ssg74
g1304
sg67
(lp1311
g103
asbasbasbag60
(g76
g62
NtRp1312
(dp1313
g65
(dp1314
sg74
g955
sg67
(lp1315
g60
(g81
g62
NtRp1316
(dp1317
g65
(dp1318
g85
g86
ssg74
g1312
sg67
(lp1319
S'is_pypy'
p1320
asbag60
(g81
g62
NtRp1321
(dp1322
g65
(dp1323
g92
g93
ssg74
g1312
sg67
(lp1324
S':'
asbag60
(g81
g62
NtRp1325
(dp1326
g65
(dp1327
sg74
g1312
sg67
(lp1328
g60
(g61
g62
NtRp1329
(dp1330
g65
(dp1331
g73
I4
ssg74
g1325
sg67
(lp1332
g103
asbasbasbag60
(g76
g62
NtRp1333
(dp1334
g65
(dp1335
sg74
g955
sg67
(lp1336
g60
(g81
g62
NtRp1337
(dp1338
g65
(dp1339
g85
g86
ssg74
g1333
sg67
(lp1340
S'path_info'
p1341
asbag60
(g81
g62
NtRp1342
(dp1343
g65
(dp1344
g92
g93
ssg74
g1333
sg67
(lp1345
S':'
asbag60
(g81
g62
NtRp1346
(dp1347
g65
(dp1348
sg74
g1333
sg67
(lp1349
g60
(g61
g62
NtRp1350
(dp1351
g65
(dp1352
g73
I4
ssg74
g1346
sg67
(lp1353
S'/miFacebook/default/friends'
p1354
asbasbasbag60
(g76
g62
NtRp1355
(dp1356
g65
(dp1357
sg74
g955
sg67
(lp1358
g60
(g81
g62
NtRp1359
(dp1360
g65
(dp1361
g85
g86
ssg74
g1355
sg67
(lp1362
S'query_string'
p1363
asbag60
(g81
g62
NtRp1364
(dp1365
g65
(dp1366
g92
g93
ssg74
g1355
sg67
(lp1367
S':'
asbag60
(g81
g62
NtRp1368
(dp1369
g65
(dp1370
sg74
g1355
sg67
(lp1371
g60
(g61
g62
NtRp1372
(dp1373
g65
(dp1374
g73
I4
ssg74
g1368
sg67
(lp1375
S''
asbasbasbag60
(g76
g62
NtRp1376
(dp1377
g65
(dp1378
sg74
g955
sg67
(lp1379
g60
(g81
g62
NtRp1380
(dp1381
g65
(dp1382
g85
g86
ssg74
g1376
sg67
(lp1383
S'remote_addr'
p1384
asbag60
(g81
g62
NtRp1385
(dp1386
g65
(dp1387
g92
g93
ssg74
g1376
sg67
(lp1388
S':'
asbag60
(g81
g62
NtRp1389
(dp1390
g65
(dp1391
sg74
g1376
sg67
(lp1392
g60
(g61
g62
NtRp1393
(dp1394
g65
(dp1395
g73
I4
ssg74
g1389
sg67
(lp1396
g215
asbasbasbag60
(g76
g62
NtRp1397
(dp1398
g65
(dp1399
sg74
g955
sg67
(lp1400
g60
(g81
g62
NtRp1401
(dp1402
g65
(dp1403
g85
g86
ssg74
g1397
sg67
(lp1404
S'remote_port'
p1405
asbag60
(g81
g62
NtRp1406
(dp1407
g65
(dp1408
g92
g93
ssg74
g1397
sg67
(lp1409
S':'
asbag60
(g81
g62
NtRp1410
(dp1411
g65
(dp1412
sg74
g1397
sg67
(lp1413
g60
(g61
g62
NtRp1414
(dp1415
g65
(dp1416
g73
I4
ssg74
g1410
sg67
(lp1417
S'50086'
p1418
asbasbasbag60
(g76
g62
NtRp1419
(dp1420
g65
(dp1421
sg74
g955
sg67
(lp1422
g60
(g81
g62
NtRp1423
(dp1424
g65
(dp1425
g85
g86
ssg74
g1419
sg67
(lp1426
S'request_method'
p1427
asbag60
(g81
g62
NtRp1428
(dp1429
g65
(dp1430
g92
g93
ssg74
g1419
sg67
(lp1431
S':'
asbag60
(g81
g62
NtRp1432
(dp1433
g65
(dp1434
sg74
g1419
sg67
(lp1435
g60
(g61
g62
NtRp1436
(dp1437
g65
(dp1438
g73
I4
ssg74
g1432
sg67
(lp1439
S'GET'
p1440
asbasbasbag60
(g76
g62
NtRp1441
(dp1442
g65
(dp1443
sg74
g955
sg67
(lp1444
g60
(g81
g62
NtRp1445
(dp1446
g65
(dp1447
g85
g86
ssg74
g1441
sg67
(lp1448
S'request_uri'
p1449
asbag60
(g81
g62
NtRp1450
(dp1451
g65
(dp1452
g92
g93
ssg74
g1441
sg67
(lp1453
S':'
asbag60
(g81
g62
NtRp1454
(dp1455
g65
(dp1456
sg74
g1441
sg67
(lp1457
g60
(g61
g62
NtRp1458
(dp1459
g65
(dp1460
g73
I4
ssg74
g1454
sg67
(lp1461
g1354
asbasbasbag60
(g76
g62
NtRp1462
(dp1463
g65
(dp1464
sg74
g955
sg67
(lp1465
g60
(g81
g62
NtRp1466
(dp1467
g65
(dp1468
g85
g86
ssg74
g1462
sg67
(lp1469
S'script_name'
p1470
asbag60
(g81
g62
NtRp1471
(dp1472
g65
(dp1473
g92
g93
ssg74
g1462
sg67
(lp1474
S':'
asbag60
(g81
g62
NtRp1475
(dp1476
g65
(dp1477
sg74
g1462
sg67
(lp1478
g60
(g61
g62
NtRp1479
(dp1480
g65
(dp1481
g73
I4
ssg74
g1475
sg67
(lp1482
S''
asbasbasbag60
(g76
g62
NtRp1483
(dp1484
g65
(dp1485
sg74
g955
sg67
(lp1486
g60
(g81
g62
NtRp1487
(dp1488
g65
(dp1489
g85
g86
ssg74
g1483
sg67
(lp1490
S'server_name'
p1491
asbag60
(g81
g62
NtRp1492
(dp1493
g65
(dp1494
g92
g93
ssg74
g1483
sg67
(lp1495
S':'
asbag60
(g81
g62
NtRp1496
(dp1497
g65
(dp1498
sg74
g1483
sg67
(lp1499
g60
(g61
g62
NtRp1500
(dp1501
g65
(dp1502
g73
I4
ssg74
g1496
sg67
(lp1503
S'MacBook-Pro-de-Alberto.local'
p1504
asbasbasbag60
(g76
g62
NtRp1505
(dp1506
g65
(dp1507
sg74
g955
sg67
(lp1508
g60
(g81
g62
NtRp1509
(dp1510
g65
(dp1511
g85
g86
ssg74
g1505
sg67
(lp1512
S'server_port'
p1513
asbag60
(g81
g62
NtRp1514
(dp1515
g65
(dp1516
g92
g93
ssg74
g1505
sg67
(lp1517
S':'
asbag60
(g81
g62
NtRp1518
(dp1519
g65
(dp1520
sg74
g1505
sg67
(lp1521
g60
(g61
g62
NtRp1522
(dp1523
g65
(dp1524
g73
I4
ssg74
g1518
sg67
(lp1525
S'8000'
p1526
asbasbasbag60
(g76
g62
NtRp1527
(dp1528
g65
(dp1529
sg74
g955
sg67
(lp1530
g60
(g81
g62
NtRp1531
(dp1532
g65
(dp1533
g85
g86
ssg74
g1527
sg67
(lp1534
S'server_protocol'
p1535
asbag60
(g81
g62
NtRp1536
(dp1537
g65
(dp1538
g92
g93
ssg74
g1527
sg67
(lp1539
S':'
asbag60
(g81
g62
NtRp1540
(dp1541
g65
(dp1542
sg74
g1527
sg67
(lp1543
g60
(g61
g62
NtRp1544
(dp1545
g65
(dp1546
g73
I4
ssg74
g1540
sg67
(lp1547
S'HTTP/1.1'
p1548
asbasbasbag60
(g76
g62
NtRp1549
(dp1550
g65
(dp1551
sg74
g955
sg67
(lp1552
g60
(g81
g62
NtRp1553
(dp1554
g65
(dp1555
g85
g86
ssg74
g1549
sg67
(lp1556
S'server_software'
p1557
asbag60
(g81
g62
NtRp1558
(dp1559
g65
(dp1560
g92
g93
ssg74
g1549
sg67
(lp1561
S':'
asbag60
(g81
g62
NtRp1562
(dp1563
g65
(dp1564
sg74
g1549
sg67
(lp1565
g60
(g61
g62
NtRp1566
(dp1567
g65
(dp1568
g73
I4
ssg74
g1562
sg67
(lp1569
S'Rocket 1.2.4'
p1570
asbasbasbag60
(g76
g62
NtRp1571
(dp1572
g65
(dp1573
sg74
g955
sg67
(lp1574
g60
(g81
g62
NtRp1575
(dp1576
g65
(dp1577
g85
g86
ssg74
g1571
sg67
(lp1578
S'web2py_crontype'
p1579
asbag60
(g81
g62
NtRp1580
(dp1581
g65
(dp1582
g92
g93
ssg74
g1571
sg67
(lp1583
S':'
asbag60
(g81
g62
NtRp1584
(dp1585
g65
(dp1586
sg74
g1571
sg67
(lp1587
g60
(g61
g62
NtRp1588
(dp1589
g65
(dp1590
g73
I4
ssg74
g1584
sg67
(lp1591
S'hard'
p1592
asbasbasbag60
(g76
g62
NtRp1593
(dp1594
g65
(dp1595
sg74
g955
sg67
(lp1596
g60
(g81
g62
NtRp1597
(dp1598
g65
(dp1599
g85
g86
ssg74
g1593
sg67
(lp1600
S'web2py_path'
p1601
asbag60
(g81
g62
NtRp1602
(dp1603
g65
(dp1604
g92
g93
ssg74
g1593
sg67
(lp1605
S':'
asbag60
(g81
g62
NtRp1606
(dp1607
g65
(dp1608
sg74
g1593
sg67
(lp1609
g60
(g61
g62
NtRp1610
(dp1611
g65
(dp1612
g73
I4
ssg74
g1606
sg67
(lp1613
g1002
asbasbasbag60
(g76
g62
NtRp1614
(dp1615
g65
(dp1616
sg74
g955
sg67
(lp1617
g60
(g81
g62
NtRp1618
(dp1619
g65
(dp1620
g85
g86
ssg74
g1614
sg67
(lp1621
S'web2py_version'
p1622
asbag60
(g81
g62
NtRp1623
(dp1624
g65
(dp1625
g92
g93
ssg74
g1614
sg67
(lp1626
S':'
asbag60
(g81
g62
NtRp1627
(dp1628
g65
(dp1629
sg74
g1614
sg67
(lp1630
g60
(g61
g62
NtRp1631
(dp1632
g65
(dp1633
g73
I4
ssg74
g1627
sg67
(lp1634
g60
(g69
g62
NtRp1635
(dp1636
g65
(dp1637
g73
I3
ssg74
Nsg67
(lp1638
g60
(g76
g62
NtRp1639
(dp1640
g65
(dp1641
sg74
g1635
sg67
(lp1642
g60
(g81
g62
NtRp1643
(dp1644
g65
(dp1645
sg74
g1639
sg67
(lp1646
g60
(g61
g62
NtRp1647
(dp1648
g65
(dp1649
g73
I3
ssg74
g1643
sg67
(lp1650
S'2'
asbasbasbag60
(g76
g62
NtRp1651
(dp1652
g65
(dp1653
sg74
g1635
sg67
(lp1654
g60
(g81
g62
NtRp1655
(dp1656
g65
(dp1657
sg74
g1651
sg67
(lp1658
g60
(g61
g62
NtRp1659
(dp1660
g65
(dp1661
g73
I3
ssg74
g1655
sg67
(lp1662
S'0'
asbasbasbag60
(g76
g62
NtRp1663
(dp1664
g65
(dp1665
sg74
g1635
sg67
(lp1666
g60
(g81
g62
NtRp1667
(dp1668
g65
(dp1669
sg74
g1663
sg67
(lp1670
g60
(g61
g62
NtRp1671
(dp1672
g65
(dp1673
g73
I3
ssg74
g1667
sg67
(lp1674
S'9'
asbasbasbag60
(g76
g62
NtRp1675
(dp1676
g65
(dp1677
sg74
g1635
sg67
(lp1678
g60
(g81
g62
NtRp1679
(dp1680
g65
(dp1681
sg74
g1675
sg67
(lp1682
g60
(g61
g62
NtRp1683
(dp1684
g65
(dp1685
g73
I3
ssg74
g1679
sg67
(lp1686
S'datetime.datetime(2012, 9, 13, 23, 51, 30)'
p1687
asbasbasbag60
(g76
g62
NtRp1688
(dp1689
g65
(dp1690
sg74
g1635
sg67
(lp1691
g60
(g81
g62
NtRp1692
(dp1693
g65
(dp1694
sg74
g1688
sg67
(lp1695
g60
(g61
g62
NtRp1696
(dp1697
g65
(dp1698
g73
I3
ssg74
g1692
sg67
(lp1699
S'stable'
p1700
asbasbasbasbasbasbasbag60
(g76
g62
NtRp1701
(dp1702
g65
(dp1703
sg74
g955
sg67
(lp1704
g60
(g81
g62
NtRp1705
(dp1706
g65
(dp1707
g85
g86
ssg74
g1701
sg67
(lp1708
S'wsgi_errors'
p1709
asbag60
(g81
g62
NtRp1710
(dp1711
g65
(dp1712
g92
g93
ssg74
g1701
sg67
(lp1713
S':'
asbag60
(g81
g62
NtRp1714
(dp1715
g65
(dp1716
sg74
g1701
sg67
(lp1717
g60
(g61
g62
NtRp1718
(dp1719
g65
(dp1720
g73
I4
ssg74
g1714
sg67
(lp1721
S"<open file '<stderr>', mode 'w' at 0x540b0>"
p1722
asbasbasbag60
(g76
g62
NtRp1723
(dp1724
g65
(dp1725
sg74
g955
sg67
(lp1726
g60
(g81
g62
NtRp1727
(dp1728
g65
(dp1729
g85
g86
ssg74
g1723
sg67
(lp1730
S'wsgi_file_wrapper'
p1731
asbag60
(g81
g62
NtRp1732
(dp1733
g65
(dp1734
g92
g93
ssg74
g1723
sg67
(lp1735
S':'
asbag60
(g81
g62
NtRp1736
(dp1737
g65
(dp1738
sg74
g1723
sg67
(lp1739
g60
(g61
g62
NtRp1740
(dp1741
g65
(dp1742
g73
I4
ssg74
g1736
sg67
(lp1743
S'<class wsgiref.util.FileWrapper at 0x599c060>'
p1744
asbasbasbag60
(g76
g62
NtRp1745
(dp1746
g65
(dp1747
sg74
g955
sg67
(lp1748
g60
(g81
g62
NtRp1749
(dp1750
g65
(dp1751
g85
g86
ssg74
g1745
sg67
(lp1752
S'wsgi_input'
p1753
asbag60
(g81
g62
NtRp1754
(dp1755
g65
(dp1756
g92
g93
ssg74
g1745
sg67
(lp1757
S':'
asbag60
(g81
g62
NtRp1758
(dp1759
g65
(dp1760
sg74
g1745
sg67
(lp1761
g60
(g61
g62
NtRp1762
(dp1763
g65
(dp1764
g73
I4
ssg74
g1758
sg67
(lp1765
S'<socket._fileobject object at 0x97324f0>'
p1766
asbasbasbag60
(g76
g62
NtRp1767
(dp1768
g65
(dp1769
sg74
g955
sg67
(lp1770
g60
(g81
g62
NtRp1771
(dp1772
g65
(dp1773
g85
g86
ssg74
g1767
sg67
(lp1774
S'wsgi_multiprocess'
p1775
asbag60
(g81
g62
NtRp1776
(dp1777
g65
(dp1778
g92
g93
ssg74
g1767
sg67
(lp1779
S':'
asbag60
(g81
g62
NtRp1780
(dp1781
g65
(dp1782
sg74
g1767
sg67
(lp1783
g60
(g61
g62
NtRp1784
(dp1785
g65
(dp1786
g73
I4
ssg74
g1780
sg67
(lp1787
g103
asbasbasbag60
(g76
g62
NtRp1788
(dp1789
g65
(dp1790
sg74
g955
sg67
(lp1791
g60
(g81
g62
NtRp1792
(dp1793
g65
(dp1794
g85
g86
ssg74
g1788
sg67
(lp1795
S'wsgi_multithread'
p1796
asbag60
(g81
g62
NtRp1797
(dp1798
g65
(dp1799
g92
g93
ssg74
g1788
sg67
(lp1800
S':'
asbag60
(g81
g62
NtRp1801
(dp1802
g65
(dp1803
sg74
g1788
sg67
(lp1804
g60
(g61
g62
NtRp1805
(dp1806
g65
(dp1807
g73
I4
ssg74
g1801
sg67
(lp1808
S'True'
p1809
asbasbasbag60
(g76
g62
NtRp1810
(dp1811
g65
(dp1812
sg74
g955
sg67
(lp1813
g60
(g81
g62
NtRp1814
(dp1815
g65
(dp1816
g85
g86
ssg74
g1810
sg67
(lp1817
S'wsgi_run_once'
p1818
asbag60
(g81
g62
NtRp1819
(dp1820
g65
(dp1821
g92
g93
ssg74
g1810
sg67
(lp1822
S':'
asbag60
(g81
g62
NtRp1823
(dp1824
g65
(dp1825
sg74
g1810
sg67
(lp1826
g60
(g61
g62
NtRp1827
(dp1828
g65
(dp1829
g73
I4
ssg74
g1823
sg67
(lp1830
g103
asbasbasbag60
(g76
g62
NtRp1831
(dp1832
g65
(dp1833
sg74
g955
sg67
(lp1834
g60
(g81
g62
NtRp1835
(dp1836
g65
(dp1837
g85
g86
ssg74
g1831
sg67
(lp1838
S'wsgi_url_scheme'
p1839
asbag60
(g81
g62
NtRp1840
(dp1841
g65
(dp1842
g92
g93
ssg74
g1831
sg67
(lp1843
S':'
asbag60
(g81
g62
NtRp1844
(dp1845
g65
(dp1846
sg74
g1831
sg67
(lp1847
g60
(g61
g62
NtRp1848
(dp1849
g65
(dp1850
g73
I4
ssg74
g1844
sg67
(lp1851
S'http'
p1852
asbasbasbag60
(g76
g62
NtRp1853
(dp1854
g65
(dp1855
sg74
g955
sg67
(lp1856
g60
(g81
g62
NtRp1857
(dp1858
g65
(dp1859
g85
g86
ssg74
g1853
sg67
(lp1860
S'wsgi_version'
p1861
asbag60
(g81
g62
NtRp1862
(dp1863
g65
(dp1864
g92
g93
ssg74
g1853
sg67
(lp1865
S':'
asbag60
(g81
g62
NtRp1866
(dp1867
g65
(dp1868
sg74
g1853
sg67
(lp1869
g60
(g61
g62
NtRp1870
(dp1871
g65
(dp1872
g73
I4
ssg74
g1866
sg67
(lp1873
g60
(g69
g62
NtRp1874
(dp1875
g65
(dp1876
g73
I3
ssg74
Nsg67
(lp1877
g60
(g76
g62
NtRp1878
(dp1879
g65
(dp1880
sg74
g1874
sg67
(lp1881
g60
(g81
g62
NtRp1882
(dp1883
g65
(dp1884
sg74
g1878
sg67
(lp1885
g60
(g61
g62
NtRp1886
(dp1887
g65
(dp1888
g73
I3
ssg74
g1882
sg67
(lp1889
S'1'
asbasbasbag60
(g76
g62
NtRp1890
(dp1891
g65
(dp1892
sg74
g1874
sg67
(lp1893
g60
(g81
g62
NtRp1894
(dp1895
g65
(dp1896
sg74
g1890
sg67
(lp1897
g60
(g61
g62
NtRp1898
(dp1899
g65
(dp1900
g73
I3
ssg74
g1894
sg67
(lp1901
S'0'
asbasbasbasbasbasbasbasbasbasbasbag60
(g76
g62
NtRp1902
(dp1903
g65
(dp1904
sg74
g70
sg67
(lp1905
g60
(g81
g62
NtRp1906
(dp1907
g65
(dp1908
g85
g86
ssg74
g1902
sg67
(lp1909
S'extension'
p1910
asbag60
(g81
g62
NtRp1911
(dp1912
g65
(dp1913
g92
g93
ssg74
g1902
sg67
(lp1914
S':'
asbag60
(g81
g62
NtRp1915
(dp1916
g65
(dp1917
sg74
g1902
sg67
(lp1918
g60
(g61
g62
NtRp1919
(dp1920
g65
(dp1921
g73
I5
ssg74
g1915
sg67
(lp1922
S'html'
p1923
asbasbasbag60
(g76
g62
NtRp1924
(dp1925
g65
(dp1926
sg74
g70
sg67
(lp1927
g60
(g81
g62
NtRp1928
(dp1929
g65
(dp1930
g85
g86
ssg74
g1924
sg67
(lp1931
S'folder'
p1932
asbag60
(g81
g62
NtRp1933
(dp1934
g65
(dp1935
g92
g93
ssg74
g1924
sg67
(lp1936
S':'
asbag60
(g81
g62
NtRp1937
(dp1938
g65
(dp1939
sg74
g1924
sg67
(lp1940
g60
(g61
g62
NtRp1941
(dp1942
g65
(dp1943
g73
I5
ssg74
g1937
sg67
(lp1944
S'/Applications/web2py.app/Contents/Resources/applications/miFacebook/'
p1945
asbasbasbag60
(g76
g62
NtRp1946
(dp1947
g65
(dp1948
sg74
g70
sg67
(lp1949
g60
(g81
g62
NtRp1950
(dp1951
g65
(dp1952
g85
g86
ssg74
g1946
sg67
(lp1953
S'function'
p1954
asbag60
(g81
g62
NtRp1955
(dp1956
g65
(dp1957
g92
g93
ssg74
g1946
sg67
(lp1958
S':'
asbag60
(g81
g62
NtRp1959
(dp1960
g65
(dp1961
sg74
g1946
sg67
(lp1962
g60
(g61
g62
NtRp1963
(dp1964
g65
(dp1965
g73
I5
ssg74
g1959
sg67
(lp1966
S'friends'
p1967
asbasbasbag60
(g76
g62
NtRp1968
(dp1969
g65
(dp1970
sg74
g70
sg67
(lp1971
g60
(g81
g62
NtRp1972
(dp1973
g65
(dp1974
g85
g86
ssg74
g1968
sg67
(lp1975
S'get_vars'
p1976
asbag60
(g81
g62
NtRp1977
(dp1978
g65
(dp1979
g92
g93
ssg74
g1968
sg67
(lp1980
S':'
asbag60
(g81
g62
NtRp1981
(dp1982
g65
(dp1983
sg74
g1968
sg67
(lp1984
g60
(g61
g62
NtRp1985
(dp1986
g65
(dp1987
g73
I5
ssg74
g1981
sg67
(lp1988
g60
(g69
g62
NtRp1989
(dp1990
g65
(dp1991
g73
I4
ssg74
Nsg67
(lp1992
sbasbasbasbag60
(g76
g62
NtRp1993
(dp1994
g65
(dp1995
sg74
g70
sg67
(lp1996
g60
(g81
g62
NtRp1997
(dp1998
g65
(dp1999
g85
g86
ssg74
g1993
sg67
(lp2000
S'global_settings'
p2001
asbag60
(g81
g62
NtRp2002
(dp2003
g65
(dp2004
g92
g93
ssg74
g1993
sg67
(lp2005
S':'
asbag60
(g81
g62
NtRp2006
(dp2007
g65
(dp2008
sg74
g1993
sg67
(lp2009
g60
(g61
g62
NtRp2010
(dp2011
g65
(dp2012
g73
I5
ssg74
g2006
sg67
(lp2013
g60
(g69
g62
NtRp2014
(dp2015
g65
(dp2016
g73
I4
ssg74
Nsg67
(lp2017
g60
(g76
g62
NtRp2018
(dp2019
g65
(dp2020
sg74
g2014
sg67
(lp2021
g60
(g81
g62
NtRp2022
(dp2023
g65
(dp2024
g85
g86
ssg74
g2018
sg67
(lp2025
g967
asbag60
(g81
g62
NtRp2026
(dp2027
g65
(dp2028
g92
g93
ssg74
g2018
sg67
(lp2029
S':'
asbag60
(g81
g62
NtRp2030
(dp2031
g65
(dp2032
sg74
g2018
sg67
(lp2033
g60
(g61
g62
NtRp2034
(dp2035
g65
(dp2036
g73
I4
ssg74
g2030
sg67
(lp2037
S"set(['/Applications/web2py.app/Contents/Resources/applications/miFacebook/', '/Applications/web2py.app/Contents/Resources/applications/admin/', '/Applications/web2py.app/Contents/Resources/applications/welcome/', '/Applications/web2py.app/Contents/Resources/applications/ticketealo/'])"
p2038
asbasbasbag60
(g76
g62
NtRp2039
(dp2040
g65
(dp2041
sg74
g2014
sg67
(lp2042
g60
(g81
g62
NtRp2043
(dp2044
g65
(dp2045
g85
g86
ssg74
g2039
sg67
(lp2046
g989
asbag60
(g81
g62
NtRp2047
(dp2048
g65
(dp2049
g92
g93
ssg74
g2039
sg67
(lp2050
S':'
asbag60
(g81
g62
NtRp2051
(dp2052
g65
(dp2053
sg74
g2039
sg67
(lp2054
g60
(g61
g62
NtRp2055
(dp2056
g65
(dp2057
g73
I4
ssg74
g2051
sg67
(lp2058
g1002
asbasbasbag60
(g76
g62
NtRp2059
(dp2060
g65
(dp2061
sg74
g2014
sg67
(lp2062
g60
(g81
g62
NtRp2063
(dp2064
g65
(dp2065
g85
g86
ssg74
g2059
sg67
(lp2066
g1011
asbag60
(g81
g62
NtRp2067
(dp2068
g65
(dp2069
g92
g93
ssg74
g2059
sg67
(lp2070
S':'
asbag60
(g81
g62
NtRp2071
(dp2072
g65
(dp2073
sg74
g2059
sg67
(lp2074
g60
(g61
g62
NtRp2075
(dp2076
g65
(dp2077
g73
I4
ssg74
g2071
sg67
(lp2078
g60
(g69
g62
NtRp2079
(dp2080
g65
(dp2081
g73
I3
ssg74
Nsg67
(lp2082
sbasbasbasbag60
(g76
g62
NtRp2083
(dp2084
g65
(dp2085
sg74
g2014
sg67
(lp2086
g60
(g81
g62
NtRp2087
(dp2088
g65
(dp2089
g85
g86
ssg74
g2083
sg67
(lp2090
g1036
asbag60
(g81
g62
NtRp2091
(dp2092
g65
(dp2093
g92
g93
ssg74
g2083
sg67
(lp2094
S':'
asbag60
(g81
g62
NtRp2095
(dp2096
g65
(dp2097
sg74
g2083
sg67
(lp2098
g60
(g61
g62
NtRp2099
(dp2100
g65
(dp2101
g73
I4
ssg74
g2095
sg67
(lp2102
S"<Values at 0x59bd8f0: {'verbose': False, 'ip': '127.0.0.1', 'with_scheduler': False, 'ips': ['172.30.12.190'], 'shutdown_timeout': 5, 'taskbar': False, 'port': 8000, 'maxthreads': None, 'softcron': False, 'server_name': 'MacBook-Pro-de-Alberto.local', 'bpython': False, 'nogui': False, 'nocron': False, 'extcron': False, 'run_system_tests': False, 'test': None, 'folder': '/Applications/web2py.app/Contents/Resources', 'config': '', 'import_models': False, 'winservice': '', 'shell': None, 'run': '', 'log_filename': 'httpserver.log', 'debuglevel': 30, 'args': [''], 'socket_timeout': 5, 'ssl_ca_certificate': None, 'scheduler': None, 'profiler_filename': None, 'ssl_private_key': '', 'scheduler_groups': None, 'password': '<ask>', 'request_queue_size': 5, 'ssl_certificate': '', 'cronjob': False, 'numthreads': None, 'quiet': False, 'interfaces': None, 'minthreads': None, 'timeout': 10, 'plain': False, 'nobanner': False, 'pid_filename': 'httpserver.pid'}>"
p2103
asbasbasbag60
(g76
g62
NtRp2104
(dp2105
g65
(dp2106
sg74
g2014
sg67
(lp2107
g60
(g81
g62
NtRp2108
(dp2109
g65
(dp2110
g85
g86
ssg74
g2104
sg67
(lp2111
g1058
asbag60
(g81
g62
NtRp2112
(dp2113
g65
(dp2114
g92
g93
ssg74
g2104
sg67
(lp2115
S':'
asbag60
(g81
g62
NtRp2116
(dp2117
g65
(dp2118
sg74
g2104
sg67
(lp2119
g60
(g61
g62
NtRp2120
(dp2121
g65
(dp2122
g73
I4
ssg74
g2116
sg67
(lp2123
S'set([])'
p2124
asbasbasbag60
(g76
g62
NtRp2125
(dp2126
g65
(dp2127
sg74
g2014
sg67
(lp2128
g60
(g81
g62
NtRp2129
(dp2130
g65
(dp2131
g85
g86
ssg74
g2125
sg67
(lp2132
g1080
asbag60
(g81
g62
NtRp2133
(dp2134
g65
(dp2135
g92
g93
ssg74
g2125
sg67
(lp2136
S':'
asbag60
(g81
g62
NtRp2137
(dp2138
g65
(dp2139
sg74
g2125
sg67
(lp2140
g60
(g61
g62
NtRp2141
(dp2142
g65
(dp2143
g73
I4
ssg74
g2137
sg67
(lp2144
g103
asbasbasbag60
(g76
g62
NtRp2145
(dp2146
g65
(dp2147
sg74
g2014
sg67
(lp2148
g60
(g81
g62
NtRp2149
(dp2150
g65
(dp2151
g85
g86
ssg74
g2145
sg67
(lp2152
g1101
asbag60
(g81
g62
NtRp2153
(dp2154
g65
(dp2155
g92
g93
ssg74
g2145
sg67
(lp2156
S':'
asbag60
(g81
g62
NtRp2157
(dp2158
g65
(dp2159
sg74
g2145
sg67
(lp2160
g60
(g61
g62
NtRp2161
(dp2162
g65
(dp2163
g73
I4
ssg74
g2157
sg67
(lp2164
g1114
asbasbasbag60
(g76
g62
NtRp2165
(dp2166
g65
(dp2167
sg74
g2014
sg67
(lp2168
g60
(g81
g62
NtRp2169
(dp2170
g65
(dp2171
g85
g86
ssg74
g2165
sg67
(lp2172
g1299
asbag60
(g81
g62
NtRp2173
(dp2174
g65
(dp2175
g92
g93
ssg74
g2165
sg67
(lp2176
S':'
asbag60
(g81
g62
NtRp2177
(dp2178
g65
(dp2179
sg74
g2165
sg67
(lp2180
g60
(g61
g62
NtRp2181
(dp2182
g65
(dp2183
g73
I4
ssg74
g2177
sg67
(lp2184
g103
asbasbasbag60
(g76
g62
NtRp2185
(dp2186
g65
(dp2187
sg74
g2014
sg67
(lp2188
g60
(g81
g62
NtRp2189
(dp2190
g65
(dp2191
g85
g86
ssg74
g2185
sg67
(lp2192
g1320
asbag60
(g81
g62
NtRp2193
(dp2194
g65
(dp2195
g92
g93
ssg74
g2185
sg67
(lp2196
S':'
asbag60
(g81
g62
NtRp2197
(dp2198
g65
(dp2199
sg74
g2185
sg67
(lp2200
g60
(g61
g62
NtRp2201
(dp2202
g65
(dp2203
g73
I4
ssg74
g2197
sg67
(lp2204
g103
asbasbasbag60
(g76
g62
NtRp2205
(dp2206
g65
(dp2207
sg74
g2014
sg67
(lp2208
g60
(g81
g62
NtRp2209
(dp2210
g65
(dp2211
g85
g86
ssg74
g2205
sg67
(lp2212
g1579
asbag60
(g81
g62
NtRp2213
(dp2214
g65
(dp2215
g92
g93
ssg74
g2205
sg67
(lp2216
S':'
asbag60
(g81
g62
NtRp2217
(dp2218
g65
(dp2219
sg74
g2205
sg67
(lp2220
g60
(g61
g62
NtRp2221
(dp2222
g65
(dp2223
g73
I4
ssg74
g2217
sg67
(lp2224
g1592
asbasbasbag60
(g76
g62
NtRp2225
(dp2226
g65
(dp2227
sg74
g2014
sg67
(lp2228
g60
(g81
g62
NtRp2229
(dp2230
g65
(dp2231
g85
g86
ssg74
g2225
sg67
(lp2232
g1622
asbag60
(g81
g62
NtRp2233
(dp2234
g65
(dp2235
g92
g93
ssg74
g2225
sg67
(lp2236
S':'
asbag60
(g81
g62
NtRp2237
(dp2238
g65
(dp2239
sg74
g2225
sg67
(lp2240
g60
(g61
g62
NtRp2241
(dp2242
g65
(dp2243
g73
I4
ssg74
g2237
sg67
(lp2244
g60
(g69
g62
NtRp2245
(dp2246
g65
(dp2247
g73
I3
ssg74
Nsg67
(lp2248
g60
(g76
g62
NtRp2249
(dp2250
g65
(dp2251
sg74
g2245
sg67
(lp2252
g60
(g81
g62
NtRp2253
(dp2254
g65
(dp2255
sg74
g2249
sg67
(lp2256
g60
(g61
g62
NtRp2257
(dp2258
g65
(dp2259
g73
I3
ssg74
g2253
sg67
(lp2260
S'2'
asbasbasbag60
(g76
g62
NtRp2261
(dp2262
g65
(dp2263
sg74
g2245
sg67
(lp2264
g60
(g81
g62
NtRp2265
(dp2266
g65
(dp2267
sg74
g2261
sg67
(lp2268
g60
(g61
g62
NtRp2269
(dp2270
g65
(dp2271
g73
I3
ssg74
g2265
sg67
(lp2272
S'0'
asbasbasbag60
(g76
g62
NtRp2273
(dp2274
g65
(dp2275
sg74
g2245
sg67
(lp2276
g60
(g81
g62
NtRp2277
(dp2278
g65
(dp2279
sg74
g2273
sg67
(lp2280
g60
(g61
g62
NtRp2281
(dp2282
g65
(dp2283
g73
I3
ssg74
g2277
sg67
(lp2284
S'9'
asbasbasbag60
(g76
g62
NtRp2285
(dp2286
g65
(dp2287
sg74
g2245
sg67
(lp2288
g60
(g81
g62
NtRp2289
(dp2290
g65
(dp2291
sg74
g2285
sg67
(lp2292
g60
(g61
g62
NtRp2293
(dp2294
g65
(dp2295
g73
I3
ssg74
g2289
sg67
(lp2296
S'datetime.datetime(2012, 9, 13, 23, 51, 30)'
p2297
asbasbasbag60
(g76
g62
NtRp2298
(dp2299
g65
(dp2300
sg74
g2245
sg67
(lp2301
g60
(g81
g62
NtRp2302
(dp2303
g65
(dp2304
sg74
g2298
sg67
(lp2305
g60
(g61
g62
NtRp2306
(dp2307
g65
(dp2308
g73
I3
ssg74
g2302
sg67
(lp2309
g1700
asbasbasbasbasbasbasbasbasbasbasbag60
(g76
g62
NtRp2310
(dp2311
g65
(dp2312
sg74
g70
sg67
(lp2313
g60
(g81
g62
NtRp2314
(dp2315
g65
(dp2316
g85
g86
ssg74
g2310
sg67
(lp2317
S'is_https'
p2318
asbag60
(g81
g62
NtRp2319
(dp2320
g65
(dp2321
g92
g93
ssg74
g2310
sg67
(lp2322
S':'
asbag60
(g81
g62
NtRp2323
(dp2324
g65
(dp2325
sg74
g2310
sg67
(lp2326
g60
(g61
g62
NtRp2327
(dp2328
g65
(dp2329
g73
I5
ssg74
g2323
sg67
(lp2330
g103
asbasbasbag60
(g76
g62
NtRp2331
(dp2332
g65
(dp2333
sg74
g70
sg67
(lp2334
g60
(g81
g62
NtRp2335
(dp2336
g65
(dp2337
g85
g86
ssg74
g2331
sg67
(lp2338
S'is_local'
p2339
asbag60
(g81
g62
NtRp2340
(dp2341
g65
(dp2342
g92
g93
ssg74
g2331
sg67
(lp2343
S':'
asbag60
(g81
g62
NtRp2344
(dp2345
g65
(dp2346
sg74
g2331
sg67
(lp2347
g60
(g61
g62
NtRp2348
(dp2349
g65
(dp2350
g73
I5
ssg74
g2344
sg67
(lp2351
g1809
asbasbasbag60
(g76
g62
NtRp2352
(dp2353
g65
(dp2354
sg74
g70
sg67
(lp2355
g60
(g81
g62
NtRp2356
(dp2357
g65
(dp2358
g85
g86
ssg74
g2352
sg67
(lp2359
S'is_restful'
p2360
asbag60
(g81
g62
NtRp2361
(dp2362
g65
(dp2363
g92
g93
ssg74
g2352
sg67
(lp2364
S':'
asbag60
(g81
g62
NtRp2365
(dp2366
g65
(dp2367
sg74
g2352
sg67
(lp2368
g60
(g61
g62
NtRp2369
(dp2370
g65
(dp2371
g73
I5
ssg74
g2365
sg67
(lp2372
g103
asbasbasbag60
(g76
g62
NtRp2373
(dp2374
g65
(dp2375
sg74
g70
sg67
(lp2376
g60
(g81
g62
NtRp2377
(dp2378
g65
(dp2379
g85
g86
ssg74
g2373
sg67
(lp2380
S'now'
p2381
asbag60
(g81
g62
NtRp2382
(dp2383
g65
(dp2384
g92
g93
ssg74
g2373
sg67
(lp2385
S':'
asbag60
(g81
g62
NtRp2386
(dp2387
g65
(dp2388
sg74
g2373
sg67
(lp2389
g60
(g61
g62
NtRp2390
(dp2391
g65
(dp2392
g73
I5
ssg74
g2386
sg67
(lp2393
S'datetime.datetime(2012, 10, 17, 9, 41, 6, 138876)'
p2394
asbasbasbag60
(g76
g62
NtRp2395
(dp2396
g65
(dp2397
sg74
g70
sg67
(lp2398
g60
(g81
g62
NtRp2399
(dp2400
g65
(dp2401
g85
g86
ssg74
g2395
sg67
(lp2402
S'post_vars'
p2403
asbag60
(g81
g62
NtRp2404
(dp2405
g65
(dp2406
g92
g93
ssg74
g2395
sg67
(lp2407
S':'
asbag60
(g81
g62
NtRp2408
(dp2409
g65
(dp2410
sg74
g2395
sg67
(lp2411
g60
(g61
g62
NtRp2412
(dp2413
g65
(dp2414
g73
I5
ssg74
g2408
sg67
(lp2415
g60
(g69
g62
NtRp2416
(dp2417
g65
(dp2418
g73
I4
ssg74
Nsg67
(lp2419
sbasbasbasbag60
(g76
g62
NtRp2420
(dp2421
g65
(dp2422
sg74
g70
sg67
(lp2423
g60
(g81
g62
NtRp2424
(dp2425
g65
(dp2426
g85
g86
ssg74
g2420
sg67
(lp2427
S'raw_args'
p2428
asbag60
(g81
g62
NtRp2429
(dp2430
g65
(dp2431
g92
g93
ssg74
g2420
sg67
(lp2432
S':'
asbag60
(g81
g62
NtRp2433
(dp2434
g65
(dp2435
sg74
g2420
sg67
(lp2436
g60
(g61
g62
NtRp2437
(dp2438
g65
(dp2439
g73
I5
ssg74
g2433
sg67
(lp2440
S'None'
p2441
asbasbasbag60
(g76
g62
NtRp2442
(dp2443
g65
(dp2444
sg74
g70
sg67
(lp2445
g60
(g81
g62
NtRp2446
(dp2447
g65
(dp2448
g85
g86
ssg74
g2442
sg67
(lp2449
S'raw_extension'
p2450
asbag60
(g81
g62
NtRp2451
(dp2452
g65
(dp2453
g92
g93
ssg74
g2442
sg67
(lp2454
S':'
asbag60
(g81
g62
NtRp2455
(dp2456
g65
(dp2457
sg74
g2442
sg67
(lp2458
g60
(g61
g62
NtRp2459
(dp2460
g65
(dp2461
g73
I5
ssg74
g2455
sg67
(lp2462
S'None'
p2463
asbasbasbag60
(g76
g62
NtRp2464
(dp2465
g65
(dp2466
sg74
g70
sg67
(lp2467
g60
(g81
g62
NtRp2468
(dp2469
g65
(dp2470
g85
g86
ssg74
g2464
sg67
(lp2471
S'url'
p2472
asbag60
(g81
g62
NtRp2473
(dp2474
g65
(dp2475
g92
g93
ssg74
g2464
sg67
(lp2476
S':'
asbag60
(g81
g62
NtRp2477
(dp2478
g65
(dp2479
sg74
g2464
sg67
(lp2480
g60
(g61
g62
NtRp2481
(dp2482
g65
(dp2483
g73
I5
ssg74
g2477
sg67
(lp2484
g1354
asbasbasbag60
(g76
g62
NtRp2485
(dp2486
g65
(dp2487
sg74
g70
sg67
(lp2488
g60
(g81
g62
NtRp2489
(dp2490
g65
(dp2491
g85
g86
ssg74
g2485
sg67
(lp2492
S'utcnow'
p2493
asbag60
(g81
g62
NtRp2494
(dp2495
g65
(dp2496
g92
g93
ssg74
g2485
sg67
(lp2497
S':'
asbag60
(g81
g62
NtRp2498
(dp2499
g65
(dp2500
sg74
g2485
sg67
(lp2501
g60
(g61
g62
NtRp2502
(dp2503
g65
(dp2504
g73
I5
ssg74
g2498
sg67
(lp2505
S'datetime.datetime(2012, 10, 17, 7, 41, 6, 138885)'
p2506
asbasbasbag60
(g76
g62
NtRp2507
(dp2508
g65
(dp2509
sg74
g70
sg67
(lp2510
g60
(g81
g62
NtRp2511
(dp2512
g65
(dp2513
g85
g86
ssg74
g2507
sg67
(lp2514
S'uuid'
p2515
asbag60
(g81
g62
NtRp2516
(dp2517
g65
(dp2518
g92
g93
ssg74
g2507
sg67
(lp2519
S':'
asbag60
(g81
g62
NtRp2520
(dp2521
g65
(dp2522
sg74
g2507
sg67
(lp2523
g60
(g61
g62
NtRp2524
(dp2525
g65
(dp2526
g73
I5
ssg74
g2520
sg67
(lp2527
S'miFacebook/127.0.0.1.2012-10-17.09-41-06.8b254ec2-4a79-4b5d-a876-a29d223e8f6d'
p2528
asbasbasbag60
(g76
g62
NtRp2529
(dp2530
g65
(dp2531
sg74
g70
sg67
(lp2532
g60
(g81
g62
NtRp2533
(dp2534
g65
(dp2535
g85
g86
ssg74
g2529
sg67
(lp2536
S'vars'
p2537
asbag60
(g81
g62
NtRp2538
(dp2539
g65
(dp2540
g92
g93
ssg74
g2529
sg67
(lp2541
S':'
asbag60
(g81
g62
NtRp2542
(dp2543
g65
(dp2544
sg74
g2529
sg67
(lp2545
g60
(g61
g62
NtRp2546
(dp2547
g65
(dp2548
g73
I5
ssg74
g2542
sg67
(lp2549
g60
(g69
g62
NtRp2550
(dp2551
g65
(dp2552
g73
I4
ssg74
Nsg67
(lp2553
sbasbasbasbag60
(g76
g62
NtRp2554
(dp2555
g65
(dp2556
sg74
g70
sg67
(lp2557
g60
(g81
g62
NtRp2558
(dp2559
g65
(dp2560
g85
g86
ssg74
g2554
sg67
(lp2561
S'wsgi'
p2562
asbag60
(g81
g62
NtRp2563
(dp2564
g65
(dp2565
g92
g93
ssg74
g2554
sg67
(lp2566
S':'
asbag60
(g81
g62
NtRp2567
(dp2568
g65
(dp2569
sg74
g2554
sg67
(lp2570
g60
(g61
g62
NtRp2571
(dp2572
g65
(dp2573
g73
I5
ssg74
g2567
sg67
(lp2574
g60
(g69
g62
NtRp2575
(dp2576
g65
(dp2577
g73
I4
ssg74
Nsg67
(lp2578
g60
(g76
g62
NtRp2579
(dp2580
g65
(dp2581
sg74
g2575
sg67
(lp2582
g60
(g81
g62
NtRp2583
(dp2584
g65
(dp2585
g85
g86
ssg74
g2579
sg67
(lp2586
S'environ'
p2587
asbag60
(g81
g62
NtRp2588
(dp2589
g65
(dp2590
g92
g93
ssg74
g2579
sg67
(lp2591
S':'
asbag60
(g81
g62
NtRp2592
(dp2593
g65
(dp2594
sg74
g2579
sg67
(lp2595
g60
(g61
g62
NtRp2596
(dp2597
g65
(dp2598
g73
I4
ssg74
g2592
sg67
(lp2599
g60
(g69
g62
NtRp2600
(dp2601
g65
(dp2602
g73
I3
ssg74
Nsg67
(lp2603
g60
(g76
g62
NtRp2604
(dp2605
g65
(dp2606
sg74
g2600
sg67
(lp2607
g60
(g81
g62
NtRp2608
(dp2609
g65
(dp2610
g85
g86
ssg74
g2604
sg67
(lp2611
S'HTTP_ACCEPT'
p2612
asbag60
(g81
g62
NtRp2613
(dp2614
g65
(dp2615
g92
g93
ssg74
g2604
sg67
(lp2616
S':'
asbag60
(g81
g62
NtRp2617
(dp2618
g65
(dp2619
sg74
g2604
sg67
(lp2620
g60
(g61
g62
NtRp2621
(dp2622
g65
(dp2623
g73
I3
ssg74
g2617
sg67
(lp2624
g1136
asbasbasbag60
(g76
g62
NtRp2625
(dp2626
g65
(dp2627
sg74
g2600
sg67
(lp2628
g60
(g81
g62
NtRp2629
(dp2630
g65
(dp2631
g85
g86
ssg74
g2625
sg67
(lp2632
S'HTTP_ACCEPT_CHARSET'
p2633
asbag60
(g81
g62
NtRp2634
(dp2635
g65
(dp2636
g92
g93
ssg74
g2625
sg67
(lp2637
S':'
asbag60
(g81
g62
NtRp2638
(dp2639
g65
(dp2640
sg74
g2625
sg67
(lp2641
g60
(g61
g62
NtRp2642
(dp2643
g65
(dp2644
g73
I3
ssg74
g2638
sg67
(lp2645
g1158
asbasbasbag60
(g76
g62
NtRp2646
(dp2647
g65
(dp2648
sg74
g2600
sg67
(lp2649
g60
(g81
g62
NtRp2650
(dp2651
g65
(dp2652
g85
g86
ssg74
g2646
sg67
(lp2653
S'HTTP_ACCEPT_ENCODING'
p2654
asbag60
(g81
g62
NtRp2655
(dp2656
g65
(dp2657
g92
g93
ssg74
g2646
sg67
(lp2658
S':'
asbag60
(g81
g62
NtRp2659
(dp2660
g65
(dp2661
sg74
g2646
sg67
(lp2662
g60
(g61
g62
NtRp2663
(dp2664
g65
(dp2665
g73
I3
ssg74
g2659
sg67
(lp2666
g1180
asbasbasbag60
(g76
g62
NtRp2667
(dp2668
g65
(dp2669
sg74
g2600
sg67
(lp2670
g60
(g81
g62
NtRp2671
(dp2672
g65
(dp2673
g85
g86
ssg74
g2667
sg67
(lp2674
S'HTTP_ACCEPT_LANGUAGE'
p2675
asbag60
(g81
g62
NtRp2676
(dp2677
g65
(dp2678
g92
g93
ssg74
g2667
sg67
(lp2679
S':'
asbag60
(g81
g62
NtRp2680
(dp2681
g65
(dp2682
sg74
g2667
sg67
(lp2683
g60
(g61
g62
NtRp2684
(dp2685
g65
(dp2686
g73
I3
ssg74
g2680
sg67
(lp2687
g1202
asbasbasbag60
(g76
g62
NtRp2688
(dp2689
g65
(dp2690
sg74
g2600
sg67
(lp2691
g60
(g81
g62
NtRp2692
(dp2693
g65
(dp2694
g85
g86
ssg74
g2688
sg67
(lp2695
S'HTTP_CONNECTION'
p2696
asbag60
(g81
g62
NtRp2697
(dp2698
g65
(dp2699
g92
g93
ssg74
g2688
sg67
(lp2700
S':'
asbag60
(g81
g62
NtRp2701
(dp2702
g65
(dp2703
sg74
g2688
sg67
(lp2704
g60
(g61
g62
NtRp2705
(dp2706
g65
(dp2707
g73
I3
ssg74
g2701
sg67
(lp2708
g1224
asbasbasbag60
(g76
g62
NtRp2709
(dp2710
g65
(dp2711
sg74
g2600
sg67
(lp2712
g60
(g81
g62
NtRp2713
(dp2714
g65
(dp2715
g85
g86
ssg74
g2709
sg67
(lp2716
S'HTTP_COOKIE'
p2717
asbag60
(g81
g62
NtRp2718
(dp2719
g65
(dp2720
g92
g93
ssg74
g2709
sg67
(lp2721
S':'
asbag60
(g81
g62
NtRp2722
(dp2723
g65
(dp2724
sg74
g2709
sg67
(lp2725
g60
(g61
g62
NtRp2726
(dp2727
g65
(dp2728
g73
I3
ssg74
g2722
sg67
(lp2729
g1246
asbasbasbag60
(g76
g62
NtRp2730
(dp2731
g65
(dp2732
sg74
g2600
sg67
(lp2733
g60
(g81
g62
NtRp2734
(dp2735
g65
(dp2736
g85
g86
ssg74
g2730
sg67
(lp2737
S'HTTP_HOST'
p2738
asbag60
(g81
g62
NtRp2739
(dp2740
g65
(dp2741
g92
g93
ssg74
g2730
sg67
(lp2742
S':'
asbag60
(g81
g62
NtRp2743
(dp2744
g65
(dp2745
sg74
g2730
sg67
(lp2746
g60
(g61
g62
NtRp2747
(dp2748
g65
(dp2749
g73
I3
ssg74
g2743
sg67
(lp2750
g1268
asbasbasbag60
(g76
g62
NtRp2751
(dp2752
g65
(dp2753
sg74
g2600
sg67
(lp2754
g60
(g81
g62
NtRp2755
(dp2756
g65
(dp2757
g85
g86
ssg74
g2751
sg67
(lp2758
S'HTTP_USER_AGENT'
p2759
asbag60
(g81
g62
NtRp2760
(dp2761
g65
(dp2762
g92
g93
ssg74
g2751
sg67
(lp2763
S':'
asbag60
(g81
g62
NtRp2764
(dp2765
g65
(dp2766
sg74
g2751
sg67
(lp2767
g60
(g61
g62
NtRp2768
(dp2769
g65
(dp2770
g73
I3
ssg74
g2764
sg67
(lp2771
g1290
asbasbasbag60
(g76
g62
NtRp2772
(dp2773
g65
(dp2774
sg74
g2600
sg67
(lp2775
g60
(g81
g62
NtRp2776
(dp2777
g65
(dp2778
g85
g86
ssg74
g2772
sg67
(lp2779
S'PATH_INFO'
p2780
asbag60
(g81
g62
NtRp2781
(dp2782
g65
(dp2783
g92
g93
ssg74
g2772
sg67
(lp2784
S':'
asbag60
(g81
g62
NtRp2785
(dp2786
g65
(dp2787
sg74
g2772
sg67
(lp2788
g60
(g61
g62
NtRp2789
(dp2790
g65
(dp2791
g73
I3
ssg74
g2785
sg67
(lp2792
g1354
asbasbasbag60
(g76
g62
NtRp2793
(dp2794
g65
(dp2795
sg74
g2600
sg67
(lp2796
g60
(g81
g62
NtRp2797
(dp2798
g65
(dp2799
g85
g86
ssg74
g2793
sg67
(lp2800
S'QUERY_STRING'
p2801
asbag60
(g81
g62
NtRp2802
(dp2803
g65
(dp2804
g92
g93
ssg74
g2793
sg67
(lp2805
S':'
asbag60
(g81
g62
NtRp2806
(dp2807
g65
(dp2808
sg74
g2793
sg67
(lp2809
g60
(g61
g62
NtRp2810
(dp2811
g65
(dp2812
g73
I3
ssg74
g2806
sg67
(lp2813
S''
asbasbasbag60
(g76
g62
NtRp2814
(dp2815
g65
(dp2816
sg74
g2600
sg67
(lp2817
g60
(g81
g62
NtRp2818
(dp2819
g65
(dp2820
g85
g86
ssg74
g2814
sg67
(lp2821
S'REMOTE_ADDR'
p2822
asbag60
(g81
g62
NtRp2823
(dp2824
g65
(dp2825
g92
g93
ssg74
g2814
sg67
(lp2826
S':'
asbag60
(g81
g62
NtRp2827
(dp2828
g65
(dp2829
sg74
g2814
sg67
(lp2830
g60
(g61
g62
NtRp2831
(dp2832
g65
(dp2833
g73
I3
ssg74
g2827
sg67
(lp2834
g215
asbasbasbag60
(g76
g62
NtRp2835
(dp2836
g65
(dp2837
sg74
g2600
sg67
(lp2838
g60
(g81
g62
NtRp2839
(dp2840
g65
(dp2841
g85
g86
ssg74
g2835
sg67
(lp2842
S'REMOTE_PORT'
p2843
asbag60
(g81
g62
NtRp2844
(dp2845
g65
(dp2846
g92
g93
ssg74
g2835
sg67
(lp2847
S':'
asbag60
(g81
g62
NtRp2848
(dp2849
g65
(dp2850
sg74
g2835
sg67
(lp2851
g60
(g61
g62
NtRp2852
(dp2853
g65
(dp2854
g73
I3
ssg74
g2848
sg67
(lp2855
g1418
asbasbasbag60
(g76
g62
NtRp2856
(dp2857
g65
(dp2858
sg74
g2600
sg67
(lp2859
g60
(g81
g62
NtRp2860
(dp2861
g65
(dp2862
g85
g86
ssg74
g2856
sg67
(lp2863
S'REQUEST_METHOD'
p2864
asbag60
(g81
g62
NtRp2865
(dp2866
g65
(dp2867
g92
g93
ssg74
g2856
sg67
(lp2868
S':'
asbag60
(g81
g62
NtRp2869
(dp2870
g65
(dp2871
sg74
g2856
sg67
(lp2872
g60
(g61
g62
NtRp2873
(dp2874
g65
(dp2875
g73
I3
ssg74
g2869
sg67
(lp2876
g1440
asbasbasbag60
(g76
g62
NtRp2877
(dp2878
g65
(dp2879
sg74
g2600
sg67
(lp2880
g60
(g81
g62
NtRp2881
(dp2882
g65
(dp2883
g85
g86
ssg74
g2877
sg67
(lp2884
S'REQUEST_URI'
p2885
asbag60
(g81
g62
NtRp2886
(dp2887
g65
(dp2888
g92
g93
ssg74
g2877
sg67
(lp2889
S':'
asbag60
(g81
g62
NtRp2890
(dp2891
g65
(dp2892
sg74
g2877
sg67
(lp2893
g60
(g61
g62
NtRp2894
(dp2895
g65
(dp2896
g73
I3
ssg74
g2890
sg67
(lp2897
g1354
asbasbasbag60
(g76
g62
NtRp2898
(dp2899
g65
(dp2900
sg74
g2600
sg67
(lp2901
g60
(g81
g62
NtRp2902
(dp2903
g65
(dp2904
g85
g86
ssg74
g2898
sg67
(lp2905
S'SCRIPT_NAME'
p2906
asbag60
(g81
g62
NtRp2907
(dp2908
g65
(dp2909
g92
g93
ssg74
g2898
sg67
(lp2910
S':'
asbag60
(g81
g62
NtRp2911
(dp2912
g65
(dp2913
sg74
g2898
sg67
(lp2914
g60
(g61
g62
NtRp2915
(dp2916
g65
(dp2917
g73
I3
ssg74
g2911
sg67
(lp2918
S''
asbasbasbag60
(g76
g62
NtRp2919
(dp2920
g65
(dp2921
sg74
g2600
sg67
(lp2922
g60
(g81
g62
NtRp2923
(dp2924
g65
(dp2925
g85
g86
ssg74
g2919
sg67
(lp2926
S'SERVER_NAME'
p2927
asbag60
(g81
g62
NtRp2928
(dp2929
g65
(dp2930
g92
g93
ssg74
g2919
sg67
(lp2931
S':'
asbag60
(g81
g62
NtRp2932
(dp2933
g65
(dp2934
sg74
g2919
sg67
(lp2935
g60
(g61
g62
NtRp2936
(dp2937
g65
(dp2938
g73
I3
ssg74
g2932
sg67
(lp2939
g1504
asbasbasbag60
(g76
g62
NtRp2940
(dp2941
g65
(dp2942
sg74
g2600
sg67
(lp2943
g60
(g81
g62
NtRp2944
(dp2945
g65
(dp2946
g85
g86
ssg74
g2940
sg67
(lp2947
S'SERVER_PORT'
p2948
asbag60
(g81
g62
NtRp2949
(dp2950
g65
(dp2951
g92
g93
ssg74
g2940
sg67
(lp2952
S':'
asbag60
(g81
g62
NtRp2953
(dp2954
g65
(dp2955
sg74
g2940
sg67
(lp2956
g60
(g61
g62
NtRp2957
(dp2958
g65
(dp2959
g73
I3
ssg74
g2953
sg67
(lp2960
g1526
asbasbasbag60
(g76
g62
NtRp2961
(dp2962
g65
(dp2963
sg74
g2600
sg67
(lp2964
g60
(g81
g62
NtRp2965
(dp2966
g65
(dp2967
g85
g86
ssg74
g2961
sg67
(lp2968
S'SERVER_PROTOCOL'
p2969
asbag60
(g81
g62
NtRp2970
(dp2971
g65
(dp2972
g92
g93
ssg74
g2961
sg67
(lp2973
S':'
asbag60
(g81
g62
NtRp2974
(dp2975
g65
(dp2976
sg74
g2961
sg67
(lp2977
g60
(g61
g62
NtRp2978
(dp2979
g65
(dp2980
g73
I3
ssg74
g2974
sg67
(lp2981
g1548
asbasbasbag60
(g76
g62
NtRp2982
(dp2983
g65
(dp2984
sg74
g2600
sg67
(lp2985
g60
(g81
g62
NtRp2986
(dp2987
g65
(dp2988
g85
g86
ssg74
g2982
sg67
(lp2989
S'SERVER_SOFTWARE'
p2990
asbag60
(g81
g62
NtRp2991
(dp2992
g65
(dp2993
g92
g93
ssg74
g2982
sg67
(lp2994
S':'
asbag60
(g81
g62
NtRp2995
(dp2996
g65
(dp2997
sg74
g2982
sg67
(lp2998
g60
(g61
g62
NtRp2999
(dp3000
g65
(dp3001
g73
I3
ssg74
g2995
sg67
(lp3002
g1570
asbasbasbag60
(g76
g62
NtRp3003
(dp3004
g65
(dp3005
sg74
g2600
sg67
(lp3006
g60
(g81
g62
NtRp3007
(dp3008
g65
(dp3009
g85
g86
ssg74
g3003
sg67
(lp3010
S'wsgi.errors'
p3011
asbag60
(g81
g62
NtRp3012
(dp3013
g65
(dp3014
g92
g93
ssg74
g3003
sg67
(lp3015
S':'
asbag60
(g81
g62
NtRp3016
(dp3017
g65
(dp3018
sg74
g3003
sg67
(lp3019
g60
(g61
g62
NtRp3020
(dp3021
g65
(dp3022
g73
I3
ssg74
g3016
sg67
(lp3023
S"<open file '<stderr>', mode 'w' at 0x540b0>"
p3024
asbasbasbag60
(g76
g62
NtRp3025
(dp3026
g65
(dp3027
sg74
g2600
sg67
(lp3028
g60
(g81
g62
NtRp3029
(dp3030
g65
(dp3031
g85
g86
ssg74
g3025
sg67
(lp3032
S'wsgi.file_wrapper'
p3033
asbag60
(g81
g62
NtRp3034
(dp3035
g65
(dp3036
g92
g93
ssg74
g3025
sg67
(lp3037
S':'
asbag60
(g81
g62
NtRp3038
(dp3039
g65
(dp3040
sg74
g3025
sg67
(lp3041
g60
(g61
g62
NtRp3042
(dp3043
g65
(dp3044
g73
I3
ssg74
g3038
sg67
(lp3045
S'<class wsgiref.util.FileWrapper at 0x599c060>'
p3046
asbasbasbag60
(g76
g62
NtRp3047
(dp3048
g65
(dp3049
sg74
g2600
sg67
(lp3050
g60
(g81
g62
NtRp3051
(dp3052
g65
(dp3053
g85
g86
ssg74
g3047
sg67
(lp3054
S'wsgi.input'
p3055
asbag60
(g81
g62
NtRp3056
(dp3057
g65
(dp3058
g92
g93
ssg74
g3047
sg67
(lp3059
S':'
asbag60
(g81
g62
NtRp3060
(dp3061
g65
(dp3062
sg74
g3047
sg67
(lp3063
g60
(g61
g62
NtRp3064
(dp3065
g65
(dp3066
g73
I3
ssg74
g3060
sg67
(lp3067
S'<cStringIO.StringO object at 0xa232da0>'
p3068
asbasbasbag60
(g76
g62
NtRp3069
(dp3070
g65
(dp3071
sg74
g2600
sg67
(lp3072
g60
(g81
g62
NtRp3073
(dp3074
g65
(dp3075
g85
g86
ssg74
g3069
sg67
(lp3076
S'wsgi.multiprocess'
p3077
asbag60
(g81
g62
NtRp3078
(dp3079
g65
(dp3080
g92
g93
ssg74
g3069
sg67
(lp3081
S':'
asbag60
(g81
g62
NtRp3082
(dp3083
g65
(dp3084
sg74
g3069
sg67
(lp3085
g60
(g61
g62
NtRp3086
(dp3087
g65
(dp3088
g73
I3
ssg74
g3082
sg67
(lp3089
g103
asbasbasbag60
(g76
g62
NtRp3090
(dp3091
g65
(dp3092
sg74
g2600
sg67
(lp3093
g60
(g81
g62
NtRp3094
(dp3095
g65
(dp3096
g85
g86
ssg74
g3090
sg67
(lp3097
S'wsgi.multithread'
p3098
asbag60
(g81
g62
NtRp3099
(dp3100
g65
(dp3101
g92
g93
ssg74
g3090
sg67
(lp3102
S':'
asbag60
(g81
g62
NtRp3103
(dp3104
g65
(dp3105
sg74
g3090
sg67
(lp3106
g60
(g61
g62
NtRp3107
(dp3108
g65
(dp3109
g73
I3
ssg74
g3103
sg67
(lp3110
g1809
asbasbasbag60
(g76
g62
NtRp3111
(dp3112
g65
(dp3113
sg74
g2600
sg67
(lp3114
g60
(g81
g62
NtRp3115
(dp3116
g65
(dp3117
g85
g86
ssg74
g3111
sg67
(lp3118
S'wsgi.run_once'
p3119
asbag60
(g81
g62
NtRp3120
(dp3121
g65
(dp3122
g92
g93
ssg74
g3111
sg67
(lp3123
S':'
asbag60
(g81
g62
NtRp3124
(dp3125
g65
(dp3126
sg74
g3111
sg67
(lp3127
g60
(g61
g62
NtRp3128
(dp3129
g65
(dp3130
g73
I3
ssg74
g3124
sg67
(lp3131
g103
asbasbasbag60
(g76
g62
NtRp3132
(dp3133
g65
(dp3134
sg74
g2600
sg67
(lp3135
g60
(g81
g62
NtRp3136
(dp3137
g65
(dp3138
g85
g86
ssg74
g3132
sg67
(lp3139
S'wsgi.url_scheme'
p3140
asbag60
(g81
g62
NtRp3141
(dp3142
g65
(dp3143
g92
g93
ssg74
g3132
sg67
(lp3144
S':'
asbag60
(g81
g62
NtRp3145
(dp3146
g65
(dp3147
sg74
g3132
sg67
(lp3148
g60
(g61
g62
NtRp3149
(dp3150
g65
(dp3151
g73
I3
ssg74
g3145
sg67
(lp3152
g1852
asbasbasbag60
(g76
g62
NtRp3153
(dp3154
g65
(dp3155
sg74
g2600
sg67
(lp3156
g60
(g81
g62
NtRp3157
(dp3158
g65
(dp3159
g85
g86
ssg74
g3153
sg67
(lp3160
S'wsgi.version'
p3161
asbag60
(g81
g62
NtRp3162
(dp3163
g65
(dp3164
g92
g93
ssg74
g3153
sg67
(lp3165
S':'
asbag60
(g81
g62
NtRp3166
(dp3167
g65
(dp3168
sg74
g3153
sg67
(lp3169
g60
(g61
g62
NtRp3170
(dp3171
g65
(dp3172
g73
I3
ssg74
g3166
sg67
(lp3173
S'1'
asbasbasbasbasbasbasbasbasbasbasbasbasbsS'frames'
p3174
(lp3175
(dp3176
S'file'
p3177
S'/Applications/web2py.app/Contents/Resources/gluon/restricted.py'
p3178
sS'dump'
p3179
(dp3180
sS'lnum'
p3181
I208
sS'lines'
p3182
(dp3183
sS'call'
p3184
S'(code="# -*- coding: utf-8 -*-\\n# this file is released ... False, URL(\'default\', \'search\')),\\n        ]\\n_()\\n", environment={\'A\': <class \'gluon.html.A\'>, \'Auth\': <class \'gluon.tools.Auth\'>, \'B\': <class \'gluon.html.B\'>, \'BEAUTIFY\': <class \'gluon.html.BEAUTIFY\'>, \'BODY\': <class \'gluon.html.BODY\'>, \'BR\': <class \'gluon.html.BR\'>, \'BUTTON\': <class \'gluon.html.BUTTON\'>, \'CAT\': <class \'gluon.html.CAT\'>, \'CENTER\': <class \'gluon.html.CENTER\'>, \'CLEANUP\': <class \'gluon.validators.CLEANUP\'>, ...}, layer=\'/Applications/web2py.app/Contents/Resources/applications/miFacebook/models/menu.py\')'
p3185
sS'func'
p3186
S'restricted'
p3187
sa(dp3188
g3177
S'/Applications/web2py.app/Contents/Resources/gluon/restricted.py'
p3189
sg3179
(dp3190
sg3181
I193
sg3182
(dp3191
sg3184
S'(code="# -*- coding: utf-8 -*-\\n# this file is released ... False, URL(\'default\', \'search\')),\\n        ]\\n_()\\n", layer=\'/Applications/web2py.app/Contents/Resources/applications/miFacebook/models/menu.py\')'
p3192
sg3186
S'compile2'
p3193
sasS'pyver'
p3194
S'Python 2.5.1: /Applications/web2py.app/Contents/MacOS/python'
p3195
sS'session'
p3196
g60
(g61
g62
NtRp3197
(dp3198
g65
(dp3199
sg67
(lp3200
g60
(g69
g62
NtRp3201
(dp3202
g65
(dp3203
g73
I5
ssg74
Nsg67
(lp3204
g60
(g76
g62
NtRp3205
(dp3206
g65
(dp3207
sg74
g3201
sg67
(lp3208
g60
(g81
g62
NtRp3209
(dp3210
g65
(dp3211
g85
g86
ssg74
g3205
sg67
(lp3212
S'auth'
p3213
asbag60
(g81
g62
NtRp3214
(dp3215
g65
(dp3216
g92
g93
ssg74
g3205
sg67
(lp3217
S':'
asbag60
(g81
g62
NtRp3218
(dp3219
g65
(dp3220
sg74
g3205
sg67
(lp3221
g60
(g61
g62
NtRp3222
(dp3223
g65
(dp3224
g73
I5
ssg74
g3218
sg67
(lp3225
g60
(g69
g62
NtRp3226
(dp3227
g65
(dp3228
g73
I4
ssg74
Nsg67
(lp3229
g60
(g76
g62
NtRp3230
(dp3231
g65
(dp3232
sg74
g3226
sg67
(lp3233
g60
(g81
g62
NtRp3234
(dp3235
g65
(dp3236
g85
g86
ssg74
g3230
sg67
(lp3237
S'expiration'
p3238
asbag60
(g81
g62
NtRp3239
(dp3240
g65
(dp3241
g92
g93
ssg74
g3230
sg67
(lp3242
S':'
asbag60
(g81
g62
NtRp3243
(dp3244
g65
(dp3245
sg74
g3230
sg67
(lp3246
g60
(g61
g62
NtRp3247
(dp3248
g65
(dp3249
g73
I4
ssg74
g3243
sg67
(lp3250
S'3600'
p3251
asbasbasbag60
(g76
g62
NtRp3252
(dp3253
g65
(dp3254
sg74
g3226
sg67
(lp3255
g60
(g81
g62
NtRp3256
(dp3257
g65
(dp3258
g85
g86
ssg74
g3252
sg67
(lp3259
S'hmac_key'
p3260
asbag60
(g81
g62
NtRp3261
(dp3262
g65
(dp3263
g92
g93
ssg74
g3252
sg67
(lp3264
S':'
asbag60
(g81
g62
NtRp3265
(dp3266
g65
(dp3267
sg74
g3252
sg67
(lp3268
g60
(g61
g62
NtRp3269
(dp3270
g65
(dp3271
g73
I4
ssg74
g3265
sg67
(lp3272
S'3b4309f0-6be8-4d90-bf7f-a15ad83fee22'
p3273
asbasbasbag60
(g76
g62
NtRp3274
(dp3275
g65
(dp3276
sg74
g3226
sg67
(lp3277
g60
(g81
g62
NtRp3278
(dp3279
g65
(dp3280
g85
g86
ssg74
g3274
sg67
(lp3281
S'last_visit'
p3282
asbag60
(g81
g62
NtRp3283
(dp3284
g65
(dp3285
g92
g93
ssg74
g3274
sg67
(lp3286
S':'
asbag60
(g81
g62
NtRp3287
(dp3288
g65
(dp3289
sg74
g3274
sg67
(lp3290
g60
(g61
g62
NtRp3291
(dp3292
g65
(dp3293
g73
I4
ssg74
g3287
sg67
(lp3294
S'datetime.datetime(2012, 10, 17, 9, 41, 6, 138876)'
p3295
asbasbasbag60
(g76
g62
NtRp3296
(dp3297
g65
(dp3298
sg74
g3226
sg67
(lp3299
g60
(g81
g62
NtRp3300
(dp3301
g65
(dp3302
g85
g86
ssg74
g3296
sg67
(lp3303
S'user'
p3304
asbag60
(g81
g62
NtRp3305
(dp3306
g65
(dp3307
g92
g93
ssg74
g3296
sg67
(lp3308
S':'
asbag60
(g81
g62
NtRp3309
(dp3310
g65
(dp3311
sg74
g3296
sg67
(lp3312
g60
(g61
g62
NtRp3313
(dp3314
g65
(dp3315
g73
I4
ssg74
g3309
sg67
(lp3316
g60
(g69
g62
NtRp3317
(dp3318
g65
(dp3319
g73
I3
ssg74
Nsg67
(lp3320
g60
(g76
g62
NtRp3321
(dp3322
g65
(dp3323
sg74
g3317
sg67
(lp3324
g60
(g81
g62
NtRp3325
(dp3326
g65
(dp3327
g85
g86
ssg74
g3321
sg67
(lp3328
S'email'
p3329
asbag60
(g81
g62
NtRp3330
(dp3331
g65
(dp3332
g92
g93
ssg74
g3321
sg67
(lp3333
S':'
asbag60
(g81
g62
NtRp3334
(dp3335
g65
(dp3336
sg74
g3321
sg67
(lp3337
g60
(g61
g62
NtRp3338
(dp3339
g65
(dp3340
g73
I3
ssg74
g3334
sg67
(lp3341
S'alberto@abelabs.com'
p3342
asbasbasbag60
(g76
g62
NtRp3343
(dp3344
g65
(dp3345
sg74
g3317
sg67
(lp3346
g60
(g81
g62
NtRp3347
(dp3348
g65
(dp3349
g85
g86
ssg74
g3343
sg67
(lp3350
S'first_name'
p3351
asbag60
(g81
g62
NtRp3352
(dp3353
g65
(dp3354
g92
g93
ssg74
g3343
sg67
(lp3355
S':'
asbag60
(g81
g62
NtRp3356
(dp3357
g65
(dp3358
sg74
g3343
sg67
(lp3359
g60
(g61
g62
NtRp3360
(dp3361
g65
(dp3362
g73
I3
ssg74
g3356
sg67
(lp3363
S'Alberto'
p3364
asbasbasbag60
(g76
g62
NtRp3365
(dp3366
g65
(dp3367
sg74
g3317
sg67
(lp3368
g60
(g81
g62
NtRp3369
(dp3370
g65
(dp3371
g85
g86
ssg74
g3365
sg67
(lp3372
S'id'
p3373
asbag60
(g81
g62
NtRp3374
(dp3375
g65
(dp3376
g92
g93
ssg74
g3365
sg67
(lp3377
S':'
asbag60
(g81
g62
NtRp3378
(dp3379
g65
(dp3380
sg74
g3365
sg67
(lp3381
g60
(g61
g62
NtRp3382
(dp3383
g65
(dp3384
g73
I3
ssg74
g3378
sg67
(lp3385
S'4'
asbasbasbag60
(g76
g62
NtRp3386
(dp3387
g65
(dp3388
sg74
g3317
sg67
(lp3389
g60
(g81
g62
NtRp3390
(dp3391
g65
(dp3392
g85
g86
ssg74
g3386
sg67
(lp3393
S'last_name'
p3394
asbag60
(g81
g62
NtRp3395
(dp3396
g65
(dp3397
g92
g93
ssg74
g3386
sg67
(lp3398
S':'
asbag60
(g81
g62
NtRp3399
(dp3400
g65
(dp3401
sg74
g3386
sg67
(lp3402
g60
(g61
g62
NtRp3403
(dp3404
g65
(dp3405
g73
I3
ssg74
g3399
sg67
(lp3406
S'Gonz\xc3\xa1lez'
p3407
asbasbasbag60
(g76
g62
NtRp3408
(dp3409
g65
(dp3410
sg74
g3317
sg67
(lp3411
g60
(g81
g62
NtRp3412
(dp3413
g65
(dp3414
g85
g86
ssg74
g3408
sg67
(lp3415
S'password'
p3416
asbag60
(g81
g62
NtRp3417
(dp3418
g65
(dp3419
g92
g93
ssg74
g3408
sg67
(lp3420
S':'
asbag60
(g81
g62
NtRp3421
(dp3422
g65
(dp3423
sg74
g3408
sg67
(lp3424
g60
(g61
g62
NtRp3425
(dp3426
g65
(dp3427
g73
I3
ssg74
g3421
sg67
(lp3428
S'pbkdf2(1000,20,sha512)$a689e14e8eb7151f$359d520a303e59953a0925fe2139150c2ab1f35f'
p3429
asbasbasbag60
(g76
g62
NtRp3430
(dp3431
g65
(dp3432
sg74
g3317
sg67
(lp3433
g60
(g81
g62
NtRp3434
(dp3435
g65
(dp3436
g85
g86
ssg74
g3430
sg67
(lp3437
S'registration_id'
p3438
asbag60
(g81
g62
NtRp3439
(dp3440
g65
(dp3441
g92
g93
ssg74
g3430
sg67
(lp3442
S':'
asbag60
(g81
g62
NtRp3443
(dp3444
g65
(dp3445
sg74
g3430
sg67
(lp3446
g60
(g61
g62
NtRp3447
(dp3448
g65
(dp3449
g73
I3
ssg74
g3443
sg67
(lp3450
S''
asbasbasbag60
(g76
g62
NtRp3451
(dp3452
g65
(dp3453
sg74
g3317
sg67
(lp3454
g60
(g81
g62
NtRp3455
(dp3456
g65
(dp3457
g85
g86
ssg74
g3451
sg67
(lp3458
S'registration_key'
p3459
asbag60
(g81
g62
NtRp3460
(dp3461
g65
(dp3462
g92
g93
ssg74
g3451
sg67
(lp3463
S':'
asbag60
(g81
g62
NtRp3464
(dp3465
g65
(dp3466
sg74
g3451
sg67
(lp3467
g60
(g61
g62
NtRp3468
(dp3469
g65
(dp3470
g73
I3
ssg74
g3464
sg67
(lp3471
S''
asbasbasbag60
(g76
g62
NtRp3472
(dp3473
g65
(dp3474
sg74
g3317
sg67
(lp3475
g60
(g81
g62
NtRp3476
(dp3477
g65
(dp3478
g85
g86
ssg74
g3472
sg67
(lp3479
S'reset_password_key'
p3480
asbag60
(g81
g62
NtRp3481
(dp3482
g65
(dp3483
g92
g93
ssg74
g3472
sg67
(lp3484
S':'
asbag60
(g81
g62
NtRp3485
(dp3486
g65
(dp3487
sg74
g3472
sg67
(lp3488
g60
(g61
g62
NtRp3489
(dp3490
g65
(dp3491
g73
I3
ssg74
g3485
sg67
(lp3492
S''
asbasbasbasbasbasbasbag60
(g76
g62
NtRp3493
(dp3494
g65
(dp3495
sg74
g3226
sg67
(lp3496
g60
(g81
g62
NtRp3497
(dp3498
g65
(dp3499
g85
g86
ssg74
g3493
sg67
(lp3500
S'user_groups'
p3501
asbag60
(g81
g62
NtRp3502
(dp3503
g65
(dp3504
g92
g93
ssg74
g3493
sg67
(lp3505
S':'
asbag60
(g81
g62
NtRp3506
(dp3507
g65
(dp3508
sg74
g3493
sg67
(lp3509
g60
(g61
g62
NtRp3510
(dp3511
g65
(dp3512
g73
I4
ssg74
g3506
sg67
(lp3513
g60
(g69
g62
NtRp3514
(dp3515
g65
(dp3516
g73
I3
ssg74
Nsg67
(lp3517
g60
(g76
g62
NtRp3518
(dp3519
g65
(dp3520
sg74
g3514
sg67
(lp3521
g60
(g81
g62
NtRp3522
(dp3523
g65
(dp3524
g85
g86
ssg74
g3518
sg67
(lp3525
S'3'
asbag60
(g81
g62
NtRp3526
(dp3527
g65
(dp3528
g92
g93
ssg74
g3518
sg67
(lp3529
S':'
asbag60
(g81
g62
NtRp3530
(dp3531
g65
(dp3532
sg74
g3518
sg67
(lp3533
g60
(g61
g62
NtRp3534
(dp3535
g65
(dp3536
g73
I3
ssg74
g3530
sg67
(lp3537
S'user_4'
p3538
asbasbasbasbasbasbasbasbasbasbasbag60
(g76
g62
NtRp3539
(dp3540
g65
(dp3541
sg74
g3201
sg67
(lp3542
g60
(g81
g62
NtRp3543
(dp3544
g65
(dp3545
g85
g86
ssg74
g3539
sg67
(lp3546
S'flash'
p3547
asbag60
(g81
g62
NtRp3548
(dp3549
g65
(dp3550
g92
g93
ssg74
g3539
sg67
(lp3551
S':'
asbag60
(g81
g62
NtRp3552
(dp3553
g65
(dp3554
sg74
g3539
sg67
(lp3555
g60
(g61
g62
NtRp3556
(dp3557
g65
(dp3558
g73
I5
ssg74
g3552
sg67
(lp3559
S'None'
p3560
asbasbasbasbasbsS'etype'
p3561
S"<type 'exceptions.IndentationError'>"
p3562
sS'date'
p3563
S'Wed Oct 17 09:41:06 2012'
p3564
sS'response'
p3565
g60
(g61
g62
NtRp3566
(dp3567
g65
(dp3568
sg67
(lp3569
g60
(g69
g62
NtRp3570
(dp3571
g65
(dp3572
g73
I5
ssg74
Nsg67
(lp3573
g60
(g76
g62
NtRp3574
(dp3575
g65
(dp3576
sg74
g3570
sg67
(lp3577
g60
(g81
g62
NtRp3578
(dp3579
g65
(dp3580
g85
g86
ssg74
g3574
sg67
(lp3581
g158
asbag60
(g81
g62
NtRp3582
(dp3583
g65
(dp3584
g92
g93
ssg74
g3574
sg67
(lp3585
S':'
asbag60
(g81
g62
NtRp3586
(dp3587
g65
(dp3588
sg74
g3574
sg67
(lp3589
g60
(g61
g62
NtRp3590
(dp3591
g65
(dp3592
g73
I5
ssg74
g3586
sg67
(lp3593
S'<cStringIO.StringO object at 0xa683d80>'
p3594
asbasbasbag60
(g76
g62
NtRp3595
(dp3596
g65
(dp3597
sg74
g3570
sg67
(lp3598
g60
(g81
g62
NtRp3599
(dp3600
g65
(dp3601
g85
g86
ssg74
g3595
sg67
(lp3602
g246
asbag60
(g81
g62
NtRp3603
(dp3604
g65
(dp3605
g92
g93
ssg74
g3595
sg67
(lp3606
S':'
asbag60
(g81
g62
NtRp3607
(dp3608
g65
(dp3609
sg74
g3595
sg67
(lp3610
g60
(g61
g62
NtRp3611
(dp3612
g65
(dp3613
g73
I5
ssg74
g3607
sg67
(lp3614
g60
(g69
g62
NtRp3615
(dp3616
g65
(dp3617
g73
I4
ssg74
Nsg67
(lp3618
g60
(g76
g62
NtRp3619
(dp3620
g65
(dp3621
sg74
g3615
sg67
(lp3622
g60
(g81
g62
NtRp3623
(dp3624
g65
(dp3625
g85
g86
ssg74
g3619
sg67
(lp3626
S'session_id_mifacebook'
p3627
asbag60
(g81
g62
NtRp3628
(dp3629
g65
(dp3630
g92
g93
ssg74
g3619
sg67
(lp3631
S':'
asbag60
(g81
g62
NtRp3632
(dp3633
g65
(dp3634
sg74
g3619
sg67
(lp3635
g60
(g61
g62
NtRp3636
(dp3637
g65
(dp3638
g73
I4
ssg74
g3632
sg67
(lp3639
g457
ag60
(g69
g62
NtRp3640
(dp3641
g65
(dp3642
g73
I3
ssg74
Nsg67
(lp3643
g60
(g76
g62
NtRp3644
(dp3645
g65
(dp3646
sg74
g3640
sg67
(lp3647
g60
(g81
g62
NtRp3648
(dp3649
g65
(dp3650
g85
g86
ssg74
g3644
sg67
(lp3651
g297
asbag60
(g81
g62
NtRp3652
(dp3653
g65
(dp3654
g92
g93
ssg74
g3644
sg67
(lp3655
S':'
asbag60
(g81
g62
NtRp3656
(dp3657
g65
(dp3658
sg74
g3644
sg67
(lp3659
g60
(g61
g62
NtRp3660
(dp3661
g65
(dp3662
g73
I3
ssg74
g3656
sg67
(lp3663
S''
asbasbasbag60
(g76
g62
NtRp3664
(dp3665
g65
(dp3666
sg74
g3640
sg67
(lp3667
g60
(g81
g62
NtRp3668
(dp3669
g65
(dp3670
g85
g86
ssg74
g3664
sg67
(lp3671
g318
asbag60
(g81
g62
NtRp3672
(dp3673
g65
(dp3674
g92
g93
ssg74
g3664
sg67
(lp3675
S':'
asbag60
(g81
g62
NtRp3676
(dp3677
g65
(dp3678
sg74
g3664
sg67
(lp3679
g60
(g61
g62
NtRp3680
(dp3681
g65
(dp3682
g73
I3
ssg74
g3676
sg67
(lp3683
S''
asbasbasbag60
(g76
g62
NtRp3684
(dp3685
g65
(dp3686
sg74
g3640
sg67
(lp3687
g60
(g81
g62
NtRp3688
(dp3689
g65
(dp3690
g85
g86
ssg74
g3684
sg67
(lp3691
g339
asbag60
(g81
g62
NtRp3692
(dp3693
g65
(dp3694
g92
g93
ssg74
g3684
sg67
(lp3695
S':'
asbag60
(g81
g62
NtRp3696
(dp3697
g65
(dp3698
sg74
g3684
sg67
(lp3699
g60
(g61
g62
NtRp3700
(dp3701
g65
(dp3702
g73
I3
ssg74
g3696
sg67
(lp3703
S''
asbasbasbag60
(g76
g62
NtRp3704
(dp3705
g65
(dp3706
sg74
g3640
sg67
(lp3707
g60
(g81
g62
NtRp3708
(dp3709
g65
(dp3710
g85
g86
ssg74
g3704
sg67
(lp3711
g360
asbag60
(g81
g62
NtRp3712
(dp3713
g65
(dp3714
g92
g93
ssg74
g3704
sg67
(lp3715
S':'
asbag60
(g81
g62
NtRp3716
(dp3717
g65
(dp3718
sg74
g3704
sg67
(lp3719
g60
(g61
g62
NtRp3720
(dp3721
g65
(dp3722
g73
I3
ssg74
g3716
sg67
(lp3723
S''
asbasbasbag60
(g76
g62
NtRp3724
(dp3725
g65
(dp3726
sg74
g3640
sg67
(lp3727
g60
(g81
g62
NtRp3728
(dp3729
g65
(dp3730
g85
g86
ssg74
g3724
sg67
(lp3731
g381
asbag60
(g81
g62
NtRp3732
(dp3733
g65
(dp3734
g92
g93
ssg74
g3724
sg67
(lp3735
S':'
asbag60
(g81
g62
NtRp3736
(dp3737
g65
(dp3738
sg74
g3724
sg67
(lp3739
g60
(g61
g62
NtRp3740
(dp3741
g65
(dp3742
g73
I3
ssg74
g3736
sg67
(lp3743
S'/'
asbasbasbag60
(g76
g62
NtRp3744
(dp3745
g65
(dp3746
sg74
g3640
sg67
(lp3747
g60
(g81
g62
NtRp3748
(dp3749
g65
(dp3750
g85
g86
ssg74
g3744
sg67
(lp3751
g402
asbag60
(g81
g62
NtRp3752
(dp3753
g65
(dp3754
g92
g93
ssg74
g3744
sg67
(lp3755
S':'
asbag60
(g81
g62
NtRp3756
(dp3757
g65
(dp3758
sg74
g3744
sg67
(lp3759
g60
(g61
g62
NtRp3760
(dp3761
g65
(dp3762
g73
I3
ssg74
g3756
sg67
(lp3763
S''
asbasbasbag60
(g76
g62
NtRp3764
(dp3765
g65
(dp3766
sg74
g3640
sg67
(lp3767
g60
(g81
g62
NtRp3768
(dp3769
g65
(dp3770
g85
g86
ssg74
g3764
sg67
(lp3771
g423
asbag60
(g81
g62
NtRp3772
(dp3773
g65
(dp3774
g92
g93
ssg74
g3764
sg67
(lp3775
S':'
asbag60
(g81
g62
NtRp3776
(dp3777
g65
(dp3778
sg74
g3764
sg67
(lp3779
g60
(g61
g62
NtRp3780
(dp3781
g65
(dp3782
g73
I3
ssg74
g3776
sg67
(lp3783
S''
asbasbasbasbasbasbasbasbasbasbasbag60
(g76
g62
NtRp3784
(dp3785
g65
(dp3786
sg74
g3570
sg67
(lp3787
g60
(g81
g62
NtRp3788
(dp3789
g65
(dp3790
g85
g86
ssg74
g3784
sg67
(lp3791
S'delimiters'
p3792
asbag60
(g81
g62
NtRp3793
(dp3794
g65
(dp3795
g92
g93
ssg74
g3784
sg67
(lp3796
S':'
asbag60
(g81
g62
NtRp3797
(dp3798
g65
(dp3799
sg74
g3784
sg67
(lp3800
g60
(g61
g62
NtRp3801
(dp3802
g65
(dp3803
g73
I5
ssg74
g3797
sg67
(lp3804
g60
(g69
g62
NtRp3805
(dp3806
g65
(dp3807
g73
I4
ssg74
Nsg67
(lp3808
g60
(g76
g62
NtRp3809
(dp3810
g65
(dp3811
sg74
g3805
sg67
(lp3812
g60
(g81
g62
NtRp3813
(dp3814
g65
(dp3815
sg74
g3809
sg67
(lp3816
g60
(g61
g62
NtRp3817
(dp3818
g65
(dp3819
g73
I4
ssg74
g3813
sg67
(lp3820
S'{{'
p3821
asbasbasbag60
(g76
g62
NtRp3822
(dp3823
g65
(dp3824
sg74
g3805
sg67
(lp3825
g60
(g81
g62
NtRp3826
(dp3827
g65
(dp3828
sg74
g3822
sg67
(lp3829
g60
(g61
g62
NtRp3830
(dp3831
g65
(dp3832
g73
I4
ssg74
g3826
sg67
(lp3833
S'}}'
p3834
asbasbasbasbasbasbasbag60
(g76
g62
NtRp3835
(dp3836
g65
(dp3837
sg74
g3570
sg67
(lp3838
g60
(g81
g62
NtRp3839
(dp3840
g65
(dp3841
g85
g86
ssg74
g3835
sg67
(lp3842
S'files'
p3843
asbag60
(g81
g62
NtRp3844
(dp3845
g65
(dp3846
g92
g93
ssg74
g3835
sg67
(lp3847
S':'
asbag60
(g81
g62
NtRp3848
(dp3849
g65
(dp3850
sg74
g3835
sg67
(lp3851
g60
(g61
g62
NtRp3852
(dp3853
g65
(dp3854
g73
I5
ssg74
g3848
sg67
(lp3855
g60
(g69
g62
NtRp3856
(dp3857
g65
(dp3858
g73
I4
ssg74
Nsg67
(lp3859
sbasbasbasbag60
(g76
g62
NtRp3860
(dp3861
g65
(dp3862
sg74
g3570
sg67
(lp3863
g60
(g81
g62
NtRp3864
(dp3865
g65
(dp3866
g85
g86
ssg74
g3860
sg67
(lp3867
S'flash'
p3868
asbag60
(g81
g62
NtRp3869
(dp3870
g65
(dp3871
g92
g93
ssg74
g3860
sg67
(lp3872
S':'
asbag60
(g81
g62
NtRp3873
(dp3874
g65
(dp3875
sg74
g3860
sg67
(lp3876
g60
(g61
g62
NtRp3877
(dp3878
g65
(dp3879
g73
I5
ssg74
g3873
sg67
(lp3880
S''
asbasbasbag60
(g76
g62
NtRp3881
(dp3882
g65
(dp3883
sg74
g3570
sg67
(lp3884
g60
(g81
g62
NtRp3885
(dp3886
g65
(dp3887
g85
g86
ssg74
g3881
sg67
(lp3888
S'generic_patterns'
p3889
asbag60
(g81
g62
NtRp3890
(dp3891
g65
(dp3892
g92
g93
ssg74
g3881
sg67
(lp3893
S':'
asbag60
(g81
g62
NtRp3894
(dp3895
g65
(dp3896
sg74
g3881
sg67
(lp3897
g60
(g61
g62
NtRp3898
(dp3899
g65
(dp3900
g73
I5
ssg74
g3894
sg67
(lp3901
g60
(g69
g62
NtRp3902
(dp3903
g65
(dp3904
g73
I4
ssg74
Nsg67
(lp3905
g60
(g76
g62
NtRp3906
(dp3907
g65
(dp3908
sg74
g3902
sg67
(lp3909
g60
(g81
g62
NtRp3910
(dp3911
g65
(dp3912
sg74
g3906
sg67
(lp3913
g60
(g61
g62
NtRp3914
(dp3915
g65
(dp3916
g73
I4
ssg74
g3910
sg67
(lp3917
S'*'
asbasbasbasbasbasbasbag60
(g76
g62
NtRp3918
(dp3919
g65
(dp3920
sg74
g3570
sg67
(lp3921
g60
(g81
g62
NtRp3922
(dp3923
g65
(dp3924
g85
g86
ssg74
g3918
sg67
(lp3925
S'headers'
p3926
asbag60
(g81
g62
NtRp3927
(dp3928
g65
(dp3929
g92
g93
ssg74
g3918
sg67
(lp3930
S':'
asbag60
(g81
g62
NtRp3931
(dp3932
g65
(dp3933
sg74
g3918
sg67
(lp3934
g60
(g61
g62
NtRp3935
(dp3936
g65
(dp3937
g73
I5
ssg74
g3931
sg67
(lp3938
g60
(g69
g62
NtRp3939
(dp3940
g65
(dp3941
g73
I4
ssg74
Nsg67
(lp3942
g60
(g76
g62
NtRp3943
(dp3944
g65
(dp3945
sg74
g3939
sg67
(lp3946
g60
(g81
g62
NtRp3947
(dp3948
g65
(dp3949
g85
g86
ssg74
g3943
sg67
(lp3950
S'X-Powered-By'
p3951
asbag60
(g81
g62
NtRp3952
(dp3953
g65
(dp3954
g92
g93
ssg74
g3943
sg67
(lp3955
S':'
asbag60
(g81
g62
NtRp3956
(dp3957
g65
(dp3958
sg74
g3943
sg67
(lp3959
g60
(g61
g62
NtRp3960
(dp3961
g65
(dp3962
g73
I4
ssg74
g3956
sg67
(lp3963
S'web2py'
p3964
asbasbasbasbasbasbasbag60
(g76
g62
NtRp3965
(dp3966
g65
(dp3967
sg74
g3570
sg67
(lp3968
g60
(g81
g62
NtRp3969
(dp3970
g65
(dp3971
g85
g86
ssg74
g3965
sg67
(lp3972
S'menu'
p3973
asbag60
(g81
g62
NtRp3974
(dp3975
g65
(dp3976
g92
g93
ssg74
g3965
sg67
(lp3977
S':'
asbag60
(g81
g62
NtRp3978
(dp3979
g65
(dp3980
sg74
g3965
sg67
(lp3981
g60
(g61
g62
NtRp3982
(dp3983
g65
(dp3984
g73
I5
ssg74
g3978
sg67
(lp3985
g60
(g69
g62
NtRp3986
(dp3987
g65
(dp3988
g73
I4
ssg74
Nsg67
(lp3989
sbasbasbasbag60
(g76
g62
NtRp3990
(dp3991
g65
(dp3992
sg74
g3570
sg67
(lp3993
g60
(g81
g62
NtRp3994
(dp3995
g65
(dp3996
g85
g86
ssg74
g3990
sg67
(lp3997
S'meta'
p3998
asbag60
(g81
g62
NtRp3999
(dp4000
g65
(dp4001
g92
g93
ssg74
g3990
sg67
(lp4002
S':'
asbag60
(g81
g62
NtRp4003
(dp4004
g65
(dp4005
sg74
g3990
sg67
(lp4006
g60
(g61
g62
NtRp4007
(dp4008
g65
(dp4009
g73
I5
ssg74
g4003
sg67
(lp4010
g60
(g69
g62
NtRp4011
(dp4012
g65
(dp4013
g73
I4
ssg74
Nsg67
(lp4014
sbasbasbasbag60
(g76
g62
NtRp4015
(dp4016
g65
(dp4017
sg74
g3570
sg67
(lp4018
g60
(g81
g62
NtRp4019
(dp4020
g65
(dp4021
g85
g86
ssg74
g4015
sg67
(lp4022
S'models_to_run'
p4023
asbag60
(g81
g62
NtRp4024
(dp4025
g65
(dp4026
g92
g93
ssg74
g4015
sg67
(lp4027
S':'
asbag60
(g81
g62
NtRp4028
(dp4029
g65
(dp4030
sg74
g4015
sg67
(lp4031
g60
(g61
g62
NtRp4032
(dp4033
g65
(dp4034
g73
I5
ssg74
g4028
sg67
(lp4035
g60
(g69
g62
NtRp4036
(dp4037
g65
(dp4038
g73
I4
ssg74
Nsg67
(lp4039
g60
(g76
g62
NtRp4040
(dp4041
g65
(dp4042
sg74
g4036
sg67
(lp4043
g60
(g81
g62
NtRp4044
(dp4045
g65
(dp4046
sg74
g4040
sg67
(lp4047
g60
(g61
g62
NtRp4048
(dp4049
g65
(dp4050
g73
I4
ssg74
g4044
sg67
(lp4051
S'^\\w+\\.py$'
p4052
asbasbasbag60
(g76
g62
NtRp4053
(dp4054
g65
(dp4055
sg74
g4036
sg67
(lp4056
g60
(g81
g62
NtRp4057
(dp4058
g65
(dp4059
sg74
g4053
sg67
(lp4060
g60
(g61
g62
NtRp4061
(dp4062
g65
(dp4063
g73
I4
ssg74
g4057
sg67
(lp4064
S'^default/\\w+\\.py$'
p4065
asbasbasbag60
(g76
g62
NtRp4066
(dp4067
g65
(dp4068
sg74
g4036
sg67
(lp4069
g60
(g81
g62
NtRp4070
(dp4071
g65
(dp4072
sg74
g4066
sg67
(lp4073
g60
(g61
g62
NtRp4074
(dp4075
g65
(dp4076
g73
I4
ssg74
g4070
sg67
(lp4077
S'^default/friends/\\w+\\.py$'
p4078
asbasbasbasbasbasbasbag60
(g76
g62
NtRp4079
(dp4080
g65
(dp4081
sg74
g3570
sg67
(lp4082
g60
(g81
g62
NtRp4083
(dp4084
g65
(dp4085
g85
g86
ssg74
g4079
sg67
(lp4086
S'postprocessing'
p4087
asbag60
(g81
g62
NtRp4088
(dp4089
g65
(dp4090
g92
g93
ssg74
g4079
sg67
(lp4091
S':'
asbag60
(g81
g62
NtRp4092
(dp4093
g65
(dp4094
sg74
g4079
sg67
(lp4095
g60
(g61
g62
NtRp4096
(dp4097
g65
(dp4098
g73
I5
ssg74
g4092
sg67
(lp4099
g60
(g69
g62
NtRp4100
(dp4101
g65
(dp4102
g73
I4
ssg74
Nsg67
(lp4103
sbasbasbasbag60
(g76
g62
NtRp4104
(dp4105
g65
(dp4106
sg74
g3570
sg67
(lp4107
g60
(g81
g62
NtRp4108
(dp4109
g65
(dp4110
g85
g86
ssg74
g4104
sg67
(lp4111
S'session_file'
p4112
asbag60
(g81
g62
NtRp4113
(dp4114
g65
(dp4115
g92
g93
ssg74
g4104
sg67
(lp4116
S':'
asbag60
(g81
g62
NtRp4117
(dp4118
g65
(dp4119
sg74
g4104
sg67
(lp4120
g60
(g61
g62
NtRp4121
(dp4122
g65
(dp4123
g73
I5
ssg74
g4117
sg67
(lp4124
S"<open file '/Applications/web2py.app/Contents/Resources/applications/miFacebook/sessions/127.0.0.1-05de177b-62db-48b0-aa89-2aa07a9430e3', mode 'rb+' at 0x81f1650>"
p4125
asbasbasbag60
(g76
g62
NtRp4126
(dp4127
g65
(dp4128
sg74
g3570
sg67
(lp4129
g60
(g81
g62
NtRp4130
(dp4131
g65
(dp4132
g85
g86
ssg74
g4126
sg67
(lp4133
S'session_filename'
p4134
asbag60
(g81
g62
NtRp4135
(dp4136
g65
(dp4137
g92
g93
ssg74
g4126
sg67
(lp4138
S':'
asbag60
(g81
g62
NtRp4139
(dp4140
g65
(dp4141
sg74
g4126
sg67
(lp4142
g60
(g61
g62
NtRp4143
(dp4144
g65
(dp4145
g73
I5
ssg74
g4139
sg67
(lp4146
S'/Applications/web2py.app/Contents/Resources/applications/miFacebook/sessions/127.0.0.1-05de177b-62db-48b0-aa89-2aa07a9430e3'
p4147
asbasbasbag60
(g76
g62
NtRp4148
(dp4149
g65
(dp4150
sg74
g3570
sg67
(lp4151
g60
(g81
g62
NtRp4152
(dp4153
g65
(dp4154
g85
g86
ssg74
g4148
sg67
(lp4155
S'session_id'
p4156
asbag60
(g81
g62
NtRp4157
(dp4158
g65
(dp4159
g92
g93
ssg74
g4148
sg67
(lp4160
S':'
asbag60
(g81
g62
NtRp4161
(dp4162
g65
(dp4163
sg74
g4148
sg67
(lp4164
g60
(g61
g62
NtRp4165
(dp4166
g65
(dp4167
g73
I5
ssg74
g4161
sg67
(lp4168
g457
asbasbasbag60
(g76
g62
NtRp4169
(dp4170
g65
(dp4171
sg74
g3570
sg67
(lp4172
g60
(g81
g62
NtRp4173
(dp4174
g65
(dp4175
g85
g86
ssg74
g4169
sg67
(lp4176
S'session_id_name'
p4177
asbag60
(g81
g62
NtRp4178
(dp4179
g65
(dp4180
g92
g93
ssg74
g4169
sg67
(lp4181
S':'
asbag60
(g81
g62
NtRp4182
(dp4183
g65
(dp4184
sg74
g4169
sg67
(lp4185
g60
(g61
g62
NtRp4186
(dp4187
g65
(dp4188
g73
I5
ssg74
g4182
sg67
(lp4189
g3627
asbasbasbag60
(g76
g62
NtRp4190
(dp4191
g65
(dp4192
sg74
g3570
sg67
(lp4193
g60
(g81
g62
NtRp4194
(dp4195
g65
(dp4196
g85
g86
ssg74
g4190
sg67
(lp4197
S'session_locked'
p4198
asbag60
(g81
g62
NtRp4199
(dp4200
g65
(dp4201
g92
g93
ssg74
g4190
sg67
(lp4202
S':'
asbag60
(g81
g62
NtRp4203
(dp4204
g65
(dp4205
sg74
g4190
sg67
(lp4206
g60
(g61
g62
NtRp4207
(dp4208
g65
(dp4209
g73
I5
ssg74
g4203
sg67
(lp4210
g1809
asbasbasbag60
(g76
g62
NtRp4211
(dp4212
g65
(dp4213
sg74
g3570
sg67
(lp4214
g60
(g81
g62
NtRp4215
(dp4216
g65
(dp4217
g85
g86
ssg74
g4211
sg67
(lp4218
S'session_new'
p4219
asbag60
(g81
g62
NtRp4220
(dp4221
g65
(dp4222
g92
g93
ssg74
g4211
sg67
(lp4223
S':'
asbag60
(g81
g62
NtRp4224
(dp4225
g65
(dp4226
sg74
g4211
sg67
(lp4227
g60
(g61
g62
NtRp4228
(dp4229
g65
(dp4230
g73
I5
ssg74
g4224
sg67
(lp4231
g103
asbasbasbag60
(g76
g62
NtRp4232
(dp4233
g65
(dp4234
sg74
g3570
sg67
(lp4235
g60
(g81
g62
NtRp4236
(dp4237
g65
(dp4238
g85
g86
ssg74
g4232
sg67
(lp4239
S'status'
p4240
asbag60
(g81
g62
NtRp4241
(dp4242
g65
(dp4243
g92
g93
ssg74
g4232
sg67
(lp4244
S':'
asbag60
(g81
g62
NtRp4245
(dp4246
g65
(dp4247
sg74
g4232
sg67
(lp4248
g60
(g61
g62
NtRp4249
(dp4250
g65
(dp4251
g73
I5
ssg74
g4245
sg67
(lp4252
S'200'
p4253
asbasbasbag60
(g76
g62
NtRp4254
(dp4255
g65
(dp4256
sg74
g3570
sg67
(lp4257
g60
(g81
g62
NtRp4258
(dp4259
g65
(dp4260
g85
g86
ssg74
g4254
sg67
(lp4261
S'view'
p4262
asbag60
(g81
g62
NtRp4263
(dp4264
g65
(dp4265
g92
g93
ssg74
g4254
sg67
(lp4266
S':'
asbag60
(g81
g62
NtRp4267
(dp4268
g65
(dp4269
sg74
g4254
sg67
(lp4270
g60
(g61
g62
NtRp4271
(dp4272
g65
(dp4273
g73
I5
ssg74
g4267
sg67
(lp4274
S'default/friends.html'
p4275
asbasbasbasbasbsS'locals'
p4276
(dp4277
g4
S"'/Applications/web2py.app/Contents/Resources/applications/miFacebook/models/menu.py'"
p4278
sg6
S'"# -*- coding: utf-8 -*-\\n# this file is released ... False, URL(\'default\', \'search\')),\\n        ]\\n_()\\n"'
p4279
sssS'traceback'
p4280
S'Traceback (most recent call last):\n  File "gluon/restricted.py", line 208, in restricted\n  File "gluon/restricted.py", line 193, in compile2\n  File "/Applications/web2py.app/Contents/Resources/applications/miFacebook/models/menu.py", line 37\n    response.menu = [\n   ^\nIndentationError: unexpected indent\n'
p4281
s.